
Discarded input sections

 .note.GNU-stack
                0x0000000000000000        0x0 /usr/lib/gcc/x86_64-redhat-linux/4.4.7/../../../../lib64/crti.o
 .note.GNU-stack
                0x0000000000000000        0x0 /usr/lib/gcc/x86_64-redhat-linux/4.4.7/crtbeginS.o
 .group         0x0000000000000000        0x8 LINUX/depdom/AttrImpl.o
 _ZN11xercesc_2_810XMLDeleterD5Ev
                0x0000000000000000        0xc LINUX/depdom/AttrImpl.o
 .group         0x0000000000000000        0x8 LINUX/depdom/AttrImpl.o
 _ZN11xercesc_2_830ArrayIndexOutOfBoundsExceptionD5Ev
                0x0000000000000000        0xc LINUX/depdom/AttrImpl.o
 .group         0x0000000000000000        0x8 LINUX/depdom/AttrImpl.o
 .group         0x0000000000000000        0x8 LINUX/depdom/AttrImpl.o
 .group         0x0000000000000000        0x8 LINUX/depdom/AttrImpl.o
 .group         0x0000000000000000        0x8 LINUX/depdom/AttrImpl.o
 .group         0x0000000000000000        0x8 LINUX/depdom/AttrImpl.o
 .group         0x0000000000000000        0x8 LINUX/depdom/AttrImpl.o
 .group         0x0000000000000000        0x8 LINUX/depdom/AttrImpl.o
 .group         0x0000000000000000        0x8 LINUX/depdom/AttrImpl.o
 .group         0x0000000000000000        0x8 LINUX/depdom/AttrImpl.o
 .group         0x0000000000000000        0x8 LINUX/depdom/AttrImpl.o
 .group         0x0000000000000000        0x8 LINUX/depdom/AttrImpl.o
 .note.GNU-stack
                0x0000000000000000        0x0 LINUX/depdom/AttrImpl.o
 .group         0x0000000000000000        0x8 LINUX/depdom/AttrMapImpl.o
 .group         0x0000000000000000        0x8 LINUX/depdom/AttrMapImpl.o
 _ZN11xercesc_2_810XMLDeleterD5Ev
                0x0000000000000000        0xc LINUX/depdom/AttrMapImpl.o
 .group         0x0000000000000000        0x8 LINUX/depdom/AttrMapImpl.o
 .group         0x0000000000000000        0x8 LINUX/depdom/AttrMapImpl.o
 .group         0x0000000000000000        0x8 LINUX/depdom/AttrMapImpl.o
 .group         0x0000000000000000        0x8 LINUX/depdom/AttrMapImpl.o
 .group         0x0000000000000000        0x8 LINUX/depdom/AttrMapImpl.o
 .group         0x0000000000000000        0x8 LINUX/depdom/AttrMapImpl.o
 .group         0x0000000000000000        0x8 LINUX/depdom/AttrMapImpl.o
 .text._ZN11xercesc_2_810XMLDeleterD2Ev
                0x0000000000000000        0xf LINUX/depdom/AttrMapImpl.o
 .text._ZN11xercesc_2_810XMLDeleterD0Ev
                0x0000000000000000       0x13 LINUX/depdom/AttrMapImpl.o
 .data.rel.ro._ZTVN11xercesc_2_810XMLDeleterE
                0x0000000000000000       0x20 LINUX/depdom/AttrMapImpl.o
 .rodata._ZTSN11xercesc_2_810XMLDeleterE
                0x0000000000000000       0x1c LINUX/depdom/AttrMapImpl.o
 .data.rel.ro._ZTIN11xercesc_2_810XMLDeleterE
                0x0000000000000000       0x10 LINUX/depdom/AttrMapImpl.o
 .data.DW.ref.__gxx_personality_v0
                0x0000000000000000        0x8 LINUX/depdom/AttrMapImpl.o
 .note.GNU-stack
                0x0000000000000000        0x0 LINUX/depdom/AttrMapImpl.o
 _ZN11xercesc_2_810XMLDeleterD5Ev
                0x0000000000000000        0xc LINUX/depdom/AttrNSImpl.o
 _ZN11xercesc_2_810AttrNSImplD5Ev
                0x0000000000000000        0xc LINUX/depdom/AttrNSImpl.o
 .group         0x0000000000000000        0x8 LINUX/depdom/AttrNSImpl.o
 .group         0x0000000000000000        0x8 LINUX/depdom/AttrNSImpl.o
 .group         0x0000000000000000        0x8 LINUX/depdom/AttrNSImpl.o
 .group         0x0000000000000000        0x8 LINUX/depdom/AttrNSImpl.o
 .group         0x0000000000000000        0x8 LINUX/depdom/AttrNSImpl.o
 .group         0x0000000000000000        0x8 LINUX/depdom/AttrNSImpl.o
 .group         0x0000000000000000        0x8 LINUX/depdom/AttrNSImpl.o
 .text._ZN11xercesc_2_810XMLDeleterD2Ev
                0x0000000000000000        0xf LINUX/depdom/AttrNSImpl.o
 .text._ZN11xercesc_2_810XMLDeleterD0Ev
                0x0000000000000000       0x13 LINUX/depdom/AttrNSImpl.o
 .data.rel.ro._ZTVN11xercesc_2_810XMLDeleterE
                0x0000000000000000       0x20 LINUX/depdom/AttrNSImpl.o
 .rodata._ZTSN11xercesc_2_810XMLDeleterE
                0x0000000000000000       0x1c LINUX/depdom/AttrNSImpl.o
 .data.rel.ro._ZTIN11xercesc_2_810XMLDeleterE
                0x0000000000000000       0x10 LINUX/depdom/AttrNSImpl.o
 .data.DW.ref.__gxx_personality_v0
                0x0000000000000000        0x8 LINUX/depdom/AttrNSImpl.o
 .note.GNU-stack
                0x0000000000000000        0x0 LINUX/depdom/AttrNSImpl.o
 _ZN11xercesc_2_810XMLDeleterD5Ev
                0x0000000000000000        0xc LINUX/depdom/CDATASectionImpl.o
 .group         0x0000000000000000        0x8 LINUX/depdom/CDATASectionImpl.o
 .group         0x0000000000000000        0x8 LINUX/depdom/CDATASectionImpl.o
 .group         0x0000000000000000        0x8 LINUX/depdom/CDATASectionImpl.o
 .group         0x0000000000000000        0x8 LINUX/depdom/CDATASectionImpl.o
 .group         0x0000000000000000        0x8 LINUX/depdom/CDATASectionImpl.o
 .group         0x0000000000000000        0x8 LINUX/depdom/CDATASectionImpl.o
 .group         0x0000000000000000        0x8 LINUX/depdom/CDATASectionImpl.o
 .text._ZN11xercesc_2_810XMLDeleterD2Ev
                0x0000000000000000        0xf LINUX/depdom/CDATASectionImpl.o
 .text._ZN11xercesc_2_810XMLDeleterD0Ev
                0x0000000000000000       0x13 LINUX/depdom/CDATASectionImpl.o
 .data.rel.ro._ZTVN11xercesc_2_810XMLDeleterE
                0x0000000000000000       0x20 LINUX/depdom/CDATASectionImpl.o
 .rodata._ZTSN11xercesc_2_810XMLDeleterE
                0x0000000000000000       0x1c LINUX/depdom/CDATASectionImpl.o
 .data.rel.ro._ZTIN11xercesc_2_810XMLDeleterE
                0x0000000000000000       0x10 LINUX/depdom/CDATASectionImpl.o
 .data.DW.ref.__gxx_personality_v0
                0x0000000000000000        0x8 LINUX/depdom/CDATASectionImpl.o
 .note.GNU-stack
                0x0000000000000000        0x0 LINUX/depdom/CDATASectionImpl.o
 _ZN11xercesc_2_810XMLDeleterD5Ev
                0x0000000000000000        0xc LINUX/depdom/CharacterDataImpl.o
 .group         0x0000000000000000        0x8 LINUX/depdom/CharacterDataImpl.o
 .group         0x0000000000000000        0x8 LINUX/depdom/CharacterDataImpl.o
 _ZN11xercesc_2_830ArrayIndexOutOfBoundsExceptionD5Ev
                0x0000000000000000        0xc LINUX/depdom/CharacterDataImpl.o
 .group         0x0000000000000000        0x8 LINUX/depdom/CharacterDataImpl.o
 .group         0x0000000000000000        0x8 LINUX/depdom/CharacterDataImpl.o
 .group         0x0000000000000000        0x8 LINUX/depdom/CharacterDataImpl.o
 .group         0x0000000000000000        0x8 LINUX/depdom/CharacterDataImpl.o
 .group         0x0000000000000000        0x8 LINUX/depdom/CharacterDataImpl.o
 .group         0x0000000000000000        0x8 LINUX/depdom/CharacterDataImpl.o
 .group         0x0000000000000000        0x8 LINUX/depdom/CharacterDataImpl.o
 .group         0x0000000000000000        0x8 LINUX/depdom/CharacterDataImpl.o
 .group         0x0000000000000000        0x8 LINUX/depdom/CharacterDataImpl.o
 .group         0x0000000000000000        0x8 LINUX/depdom/CharacterDataImpl.o
 .group         0x0000000000000000        0x8 LINUX/depdom/CharacterDataImpl.o
 .text._ZN11xercesc_2_810XMLDeleterD2Ev
                0x0000000000000000        0xf LINUX/depdom/CharacterDataImpl.o
 .text._ZNK11xercesc_2_830ArrayIndexOutOfBoundsException7getTypeEv
                0x0000000000000000        0x8 LINUX/depdom/CharacterDataImpl.o
 .text._ZN11xercesc_2_810XMLDeleterD0Ev
                0x0000000000000000       0x13 LINUX/depdom/CharacterDataImpl.o
 .text._ZN11xercesc_2_815BaseRefVectorOfINS_9RangeImplEE9elementAtEj
                0x0000000000000000       0xa6 LINUX/depdom/CharacterDataImpl.o
 .text._ZN11xercesc_2_830ArrayIndexOutOfBoundsExceptionD2Ev
                0x0000000000000000       0x13 LINUX/depdom/CharacterDataImpl.o
 .text._ZNK11xercesc_2_830ArrayIndexOutOfBoundsException9duplicateEv
                0x0000000000000000       0x6c LINUX/depdom/CharacterDataImpl.o
 .text._ZN11xercesc_2_830ArrayIndexOutOfBoundsExceptionD0Ev
                0x0000000000000000       0x20 LINUX/depdom/CharacterDataImpl.o
 .data.rel.ro._ZTVN11xercesc_2_810XMLDeleterE
                0x0000000000000000       0x20 LINUX/depdom/CharacterDataImpl.o
 .rodata._ZTSN11xercesc_2_810XMLDeleterE
                0x0000000000000000       0x1c LINUX/depdom/CharacterDataImpl.o
 .data.rel.ro._ZTIN11xercesc_2_810XMLDeleterE
                0x0000000000000000       0x10 LINUX/depdom/CharacterDataImpl.o
 .data.rel.ro._ZTIN11xercesc_2_830ArrayIndexOutOfBoundsExceptionE
                0x0000000000000000       0x18 LINUX/depdom/CharacterDataImpl.o
 .rodata._ZTSN11xercesc_2_830ArrayIndexOutOfBoundsExceptionE
                0x0000000000000000       0x30 LINUX/depdom/CharacterDataImpl.o
 .data.rel.ro._ZTVN11xercesc_2_830ArrayIndexOutOfBoundsExceptionE
                0x0000000000000000       0x30 LINUX/depdom/CharacterDataImpl.o
 .data.DW.ref.__gxx_personality_v0
                0x0000000000000000        0x8 LINUX/depdom/CharacterDataImpl.o
 .note.GNU-stack
                0x0000000000000000        0x0 LINUX/depdom/CharacterDataImpl.o
 .group         0x0000000000000000        0x8 LINUX/depdom/ChildNode.o
 .group         0x0000000000000000        0x8 LINUX/depdom/ChildNode.o
 .group         0x0000000000000000        0x8 LINUX/depdom/ChildNode.o
 .group         0x0000000000000000        0x8 LINUX/depdom/ChildNode.o
 .data.DW.ref.__gxx_personality_v0
                0x0000000000000000        0x8 LINUX/depdom/ChildNode.o
 .note.GNU-stack
                0x0000000000000000        0x0 LINUX/depdom/ChildNode.o
 _ZN11xercesc_2_810XMLDeleterD5Ev
                0x0000000000000000        0xc LINUX/depdom/CommentImpl.o
 .group         0x0000000000000000        0x8 LINUX/depdom/CommentImpl.o
 .group         0x0000000000000000        0x8 LINUX/depdom/CommentImpl.o
 .group         0x0000000000000000        0x8 LINUX/depdom/CommentImpl.o
 .group         0x0000000000000000        0x8 LINUX/depdom/CommentImpl.o
 .group         0x0000000000000000        0x8 LINUX/depdom/CommentImpl.o
 .group         0x0000000000000000        0x8 LINUX/depdom/CommentImpl.o
 .group         0x0000000000000000        0x8 LINUX/depdom/CommentImpl.o
 .text._ZN11xercesc_2_810XMLDeleterD2Ev
                0x0000000000000000        0xf LINUX/depdom/CommentImpl.o
 .text._ZN11xercesc_2_810XMLDeleterD0Ev
                0x0000000000000000       0x13 LINUX/depdom/CommentImpl.o
 .data.rel.ro._ZTVN11xercesc_2_810XMLDeleterE
                0x0000000000000000       0x20 LINUX/depdom/CommentImpl.o
 .rodata._ZTSN11xercesc_2_810XMLDeleterE
                0x0000000000000000       0x1c LINUX/depdom/CommentImpl.o
 .data.rel.ro._ZTIN11xercesc_2_810XMLDeleterE
                0x0000000000000000       0x10 LINUX/depdom/CommentImpl.o
 .data.DW.ref.__gxx_personality_v0
                0x0000000000000000        0x8 LINUX/depdom/CommentImpl.o
 .note.GNU-stack
                0x0000000000000000        0x0 LINUX/depdom/CommentImpl.o
 _ZN11xercesc_2_810XMLDeleterD5Ev
                0x0000000000000000        0xc LINUX/depdom/DeepNodeListImpl.o
 .group         0x0000000000000000        0x8 LINUX/depdom/DeepNodeListImpl.o
 .group         0x0000000000000000        0x8 LINUX/depdom/DeepNodeListImpl.o
 .group         0x0000000000000000        0x8 LINUX/depdom/DeepNodeListImpl.o
 .group         0x0000000000000000        0x8 LINUX/depdom/DeepNodeListImpl.o
 .group         0x0000000000000000        0x8 LINUX/depdom/DeepNodeListImpl.o
 .group         0x0000000000000000        0x8 LINUX/depdom/DeepNodeListImpl.o
 .group         0x0000000000000000        0x8 LINUX/depdom/DeepNodeListImpl.o
 .text._ZN11xercesc_2_810XMLDeleterD2Ev
                0x0000000000000000        0xf LINUX/depdom/DeepNodeListImpl.o
 .text._ZN11xercesc_2_810XMLDeleterD0Ev
                0x0000000000000000       0x13 LINUX/depdom/DeepNodeListImpl.o
 .data.rel.ro._ZTVN11xercesc_2_810XMLDeleterE
                0x0000000000000000       0x20 LINUX/depdom/DeepNodeListImpl.o
 .rodata._ZTSN11xercesc_2_810XMLDeleterE
                0x0000000000000000       0x1c LINUX/depdom/DeepNodeListImpl.o
 .data.rel.ro._ZTIN11xercesc_2_810XMLDeleterE
                0x0000000000000000       0x10 LINUX/depdom/DeepNodeListImpl.o
 .data.DW.ref.__gxx_personality_v0
                0x0000000000000000        0x8 LINUX/depdom/DeepNodeListImpl.o
 .note.GNU-stack
                0x0000000000000000        0x0 LINUX/depdom/DeepNodeListImpl.o
 _ZN11xercesc_2_810XMLDeleterD5Ev
                0x0000000000000000        0xc LINUX/depdom/DocumentFragmentImpl.o
 .group         0x0000000000000000        0x8 LINUX/depdom/DocumentFragmentImpl.o
 .group         0x0000000000000000        0x8 LINUX/depdom/DocumentFragmentImpl.o
 .group         0x0000000000000000        0x8 LINUX/depdom/DocumentFragmentImpl.o
 .group         0x0000000000000000        0x8 LINUX/depdom/DocumentFragmentImpl.o
 .group         0x0000000000000000        0x8 LINUX/depdom/DocumentFragmentImpl.o
 .group         0x0000000000000000        0x8 LINUX/depdom/DocumentFragmentImpl.o
 .group         0x0000000000000000        0x8 LINUX/depdom/DocumentFragmentImpl.o
 .text._ZN11xercesc_2_810XMLDeleterD2Ev
                0x0000000000000000        0xf LINUX/depdom/DocumentFragmentImpl.o
 .text._ZN11xercesc_2_810XMLDeleterD0Ev
                0x0000000000000000       0x13 LINUX/depdom/DocumentFragmentImpl.o
 .data.rel.ro._ZTVN11xercesc_2_810XMLDeleterE
                0x0000000000000000       0x20 LINUX/depdom/DocumentFragmentImpl.o
 .rodata._ZTSN11xercesc_2_810XMLDeleterE
                0x0000000000000000       0x1c LINUX/depdom/DocumentFragmentImpl.o
 .data.rel.ro._ZTIN11xercesc_2_810XMLDeleterE
                0x0000000000000000       0x10 LINUX/depdom/DocumentFragmentImpl.o
 .data.DW.ref.__gxx_personality_v0
                0x0000000000000000        0x8 LINUX/depdom/DocumentFragmentImpl.o
 .note.GNU-stack
                0x0000000000000000        0x0 LINUX/depdom/DocumentFragmentImpl.o
 .group         0x0000000000000000        0x8 LINUX/depdom/DocumentImpl.o
 _ZN11xercesc_2_810XMLDeleterD5Ev
                0x0000000000000000        0xc LINUX/depdom/DocumentImpl.o
 .group         0x0000000000000000        0x8 LINUX/depdom/DocumentImpl.o
 .group         0x0000000000000000        0x8 LINUX/depdom/DocumentImpl.o
 _ZN11xercesc_2_811RefVectorOfINS_16NodeIteratorImplEED5Ev
                0x0000000000000000        0xc LINUX/depdom/DocumentImpl.o
 _ZN11xercesc_2_811RefVectorOfINS_14TreeWalkerImplEED5Ev
                0x0000000000000000        0xc LINUX/depdom/DocumentImpl.o
 _ZN11xercesc_2_811RefVectorOfINS_9RangeImplEED5Ev
                0x0000000000000000        0xc LINUX/depdom/DocumentImpl.o
 _ZN11xercesc_2_815BaseRefVectorOfINS_16NodeIteratorImplEED5Ev
                0x0000000000000000        0xc LINUX/depdom/DocumentImpl.o
 _ZN11xercesc_2_815BaseRefVectorOfINS_14TreeWalkerImplEED5Ev
                0x0000000000000000        0xc LINUX/depdom/DocumentImpl.o
 _ZN11xercesc_2_815BaseRefVectorOfINS_9RangeImplEED5Ev
                0x0000000000000000        0xc LINUX/depdom/DocumentImpl.o
 .group         0x0000000000000000        0x8 LINUX/depdom/DocumentImpl.o
 .group         0x0000000000000000        0x8 LINUX/depdom/DocumentImpl.o
 .group         0x0000000000000000        0x8 LINUX/depdom/DocumentImpl.o
 .group         0x0000000000000000        0x8 LINUX/depdom/DocumentImpl.o
 .group         0x0000000000000000        0x8 LINUX/depdom/DocumentImpl.o
 .group         0x0000000000000000        0x8 LINUX/depdom/DocumentImpl.o
 .group         0x0000000000000000        0x8 LINUX/depdom/DocumentImpl.o
 .group         0x0000000000000000        0x8 LINUX/depdom/DocumentImpl.o
 .group         0x0000000000000000        0x8 LINUX/depdom/DocumentImpl.o
 .group         0x0000000000000000        0x8 LINUX/depdom/DocumentImpl.o
 .group         0x0000000000000000        0x8 LINUX/depdom/DocumentImpl.o
 _ZN11xercesc_2_824IllegalArgumentExceptionD5Ev
                0x0000000000000000        0xc LINUX/depdom/DocumentImpl.o
 .group         0x0000000000000000        0x8 LINUX/depdom/DocumentImpl.o
 _ZN11xercesc_2_822NoSuchElementExceptionD5Ev
                0x0000000000000000        0xc LINUX/depdom/DocumentImpl.o
 _ZN11xercesc_2_830ArrayIndexOutOfBoundsExceptionD5Ev
                0x0000000000000000        0xc LINUX/depdom/DocumentImpl.o
 .group         0x0000000000000000        0x8 LINUX/depdom/DocumentImpl.o
 .group         0x0000000000000000        0x8 LINUX/depdom/DocumentImpl.o
 .group         0x0000000000000000        0x8 LINUX/depdom/DocumentImpl.o
 _ZN11xercesc_2_812ArrayJanitorIPNS_22RefHashTableBucketElemIvEEED5Ev
                0x0000000000000000        0x8 LINUX/depdom/DocumentImpl.o
 .group         0x0000000000000000        0x8 LINUX/depdom/DocumentImpl.o
 .group         0x0000000000000000        0x8 LINUX/depdom/DocumentImpl.o
 .group         0x0000000000000000        0x8 LINUX/depdom/DocumentImpl.o
 .group         0x0000000000000000        0x8 LINUX/depdom/DocumentImpl.o
 .group         0x0000000000000000        0x8 LINUX/depdom/DocumentImpl.o
 .group         0x0000000000000000        0x8 LINUX/depdom/DocumentImpl.o
 .group         0x0000000000000000        0x8 LINUX/depdom/DocumentImpl.o
 .group         0x0000000000000000        0x8 LINUX/depdom/DocumentImpl.o
 .group         0x0000000000000000        0x8 LINUX/depdom/DocumentImpl.o
 .group         0x0000000000000000        0x8 LINUX/depdom/DocumentImpl.o
 .group         0x0000000000000000        0x8 LINUX/depdom/DocumentImpl.o
 .group         0x0000000000000000        0x8 LINUX/depdom/DocumentImpl.o
 .group         0x0000000000000000        0x8 LINUX/depdom/DocumentImpl.o
 .group         0x0000000000000000        0x8 LINUX/depdom/DocumentImpl.o
 .group         0x0000000000000000        0x8 LINUX/depdom/DocumentImpl.o
 .group         0x0000000000000000        0x8 LINUX/depdom/DocumentImpl.o
 .group         0x0000000000000000        0x8 LINUX/depdom/DocumentImpl.o
 .group         0x0000000000000000        0x8 LINUX/depdom/DocumentImpl.o
 .group         0x0000000000000000        0x8 LINUX/depdom/DocumentImpl.o
 .group         0x0000000000000000        0x8 LINUX/depdom/DocumentImpl.o
 .group         0x0000000000000000        0x8 LINUX/depdom/DocumentImpl.o
 .group         0x0000000000000000        0x8 LINUX/depdom/DocumentImpl.o
 .group         0x0000000000000000        0x8 LINUX/depdom/DocumentImpl.o
 .group         0x0000000000000000        0x8 LINUX/depdom/DocumentImpl.o
 .group         0x0000000000000000        0x8 LINUX/depdom/DocumentImpl.o
 .group         0x0000000000000000        0x8 LINUX/depdom/DocumentImpl.o
 .group         0x0000000000000000        0x8 LINUX/depdom/DocumentImpl.o
 .group         0x0000000000000000        0x8 LINUX/depdom/DocumentImpl.o
 .group         0x0000000000000000        0x8 LINUX/depdom/DocumentImpl.o
 .group         0x0000000000000000        0x8 LINUX/depdom/DocumentImpl.o
 .group         0x0000000000000000        0x8 LINUX/depdom/DocumentImpl.o
 .group         0x0000000000000000        0x8 LINUX/depdom/DocumentImpl.o
 .group         0x0000000000000000        0x8 LINUX/depdom/DocumentImpl.o
 .group         0x0000000000000000        0x8 LINUX/depdom/DocumentImpl.o
 .group         0x0000000000000000        0x8 LINUX/depdom/DocumentImpl.o
 .group         0x0000000000000000        0x8 LINUX/depdom/DocumentImpl.o
 .group         0x0000000000000000        0x8 LINUX/depdom/DocumentImpl.o
 .group         0x0000000000000000        0x8 LINUX/depdom/DocumentImpl.o
 .group         0x0000000000000000        0x8 LINUX/depdom/DocumentImpl.o
 .group         0x0000000000000000        0x8 LINUX/depdom/DocumentImpl.o
 .group         0x0000000000000000        0x8 LINUX/depdom/DocumentImpl.o
 .group         0x0000000000000000        0x8 LINUX/depdom/DocumentImpl.o
 .group         0x0000000000000000        0x8 LINUX/depdom/DocumentImpl.o
 .text._ZNK11xercesc_2_830ArrayIndexOutOfBoundsException7getTypeEv
                0x0000000000000000        0x8 LINUX/depdom/DocumentImpl.o
 .text._ZN11xercesc_2_810XMLDeleterD2Ev
                0x0000000000000000        0xf LINUX/depdom/DocumentImpl.o
 .text._ZN11xercesc_2_810XMLDeleterD0Ev
                0x0000000000000000       0x13 LINUX/depdom/DocumentImpl.o
 .text._ZN11xercesc_2_830ArrayIndexOutOfBoundsExceptionD2Ev
                0x0000000000000000       0x13 LINUX/depdom/DocumentImpl.o
 .text._ZNK11xercesc_2_830ArrayIndexOutOfBoundsException9duplicateEv
                0x0000000000000000       0x6c LINUX/depdom/DocumentImpl.o
 .text._ZN11xercesc_2_830ArrayIndexOutOfBoundsExceptionD0Ev
                0x0000000000000000       0x20 LINUX/depdom/DocumentImpl.o
 .data.rel.ro._ZTVN11xercesc_2_810XMLDeleterE
                0x0000000000000000       0x20 LINUX/depdom/DocumentImpl.o
 .rodata._ZTSN11xercesc_2_810XMLDeleterE
                0x0000000000000000       0x1c LINUX/depdom/DocumentImpl.o
 .data.rel.ro._ZTIN11xercesc_2_810XMLDeleterE
                0x0000000000000000       0x10 LINUX/depdom/DocumentImpl.o
 .data.rel.ro._ZTIN11xercesc_2_830ArrayIndexOutOfBoundsExceptionE
                0x0000000000000000       0x18 LINUX/depdom/DocumentImpl.o
 .rodata._ZTSN11xercesc_2_830ArrayIndexOutOfBoundsExceptionE
                0x0000000000000000       0x30 LINUX/depdom/DocumentImpl.o
 .data.rel.ro._ZTVN11xercesc_2_830ArrayIndexOutOfBoundsExceptionE
                0x0000000000000000       0x30 LINUX/depdom/DocumentImpl.o
 .data.DW.ref.__gxx_personality_v0
                0x0000000000000000        0x8 LINUX/depdom/DocumentImpl.o
 .note.GNU-stack
                0x0000000000000000        0x0 LINUX/depdom/DocumentImpl.o
 _ZN11xercesc_2_810XMLDeleterD5Ev
                0x0000000000000000        0xc LINUX/depdom/DocumentTypeImpl.o
 .group         0x0000000000000000        0x8 LINUX/depdom/DocumentTypeImpl.o
 .group         0x0000000000000000        0x8 LINUX/depdom/DocumentTypeImpl.o
 .group         0x0000000000000000        0x8 LINUX/depdom/DocumentTypeImpl.o
 .group         0x0000000000000000        0x8 LINUX/depdom/DocumentTypeImpl.o
 .group         0x0000000000000000        0x8 LINUX/depdom/DocumentTypeImpl.o
 .group         0x0000000000000000        0x8 LINUX/depdom/DocumentTypeImpl.o
 .group         0x0000000000000000        0x8 LINUX/depdom/DocumentTypeImpl.o
 .text._ZN11xercesc_2_810XMLDeleterD2Ev
                0x0000000000000000        0xf LINUX/depdom/DocumentTypeImpl.o
 .text._ZN11xercesc_2_810XMLDeleterD0Ev
                0x0000000000000000       0x13 LINUX/depdom/DocumentTypeImpl.o
 .data.rel.ro._ZTVN11xercesc_2_810XMLDeleterE
                0x0000000000000000       0x20 LINUX/depdom/DocumentTypeImpl.o
 .rodata._ZTSN11xercesc_2_810XMLDeleterE
                0x0000000000000000       0x1c LINUX/depdom/DocumentTypeImpl.o
 .data.rel.ro._ZTIN11xercesc_2_810XMLDeleterE
                0x0000000000000000       0x10 LINUX/depdom/DocumentTypeImpl.o
 .data.DW.ref.__gxx_personality_v0
                0x0000000000000000        0x8 LINUX/depdom/DocumentTypeImpl.o
 .note.GNU-stack
                0x0000000000000000        0x0 LINUX/depdom/DocumentTypeImpl.o
 .group         0x0000000000000000        0x8 LINUX/depdom/DOM_Attr.o
 .data.DW.ref.__gxx_personality_v0
                0x0000000000000000        0x8 LINUX/depdom/DOM_Attr.o
 .note.GNU-stack
                0x0000000000000000        0x0 LINUX/depdom/DOM_Attr.o
 .group         0x0000000000000000        0x8 LINUX/depdom/DOM_CDATASection.o
 .data.DW.ref.__gxx_personality_v0
                0x0000000000000000        0x8 LINUX/depdom/DOM_CDATASection.o
 .note.GNU-stack
                0x0000000000000000        0x0 LINUX/depdom/DOM_CDATASection.o
 .group         0x0000000000000000        0x8 LINUX/depdom/DOM_CharacterData.o
 .data.DW.ref.__gxx_personality_v0
                0x0000000000000000        0x8 LINUX/depdom/DOM_CharacterData.o
 .note.GNU-stack
                0x0000000000000000        0x0 LINUX/depdom/DOM_CharacterData.o
 .group         0x0000000000000000        0x8 LINUX/depdom/DOM_Comment.o
 .data.DW.ref.__gxx_personality_v0
                0x0000000000000000        0x8 LINUX/depdom/DOM_Comment.o
 .note.GNU-stack
                0x0000000000000000        0x0 LINUX/depdom/DOM_Comment.o
 .group         0x0000000000000000        0x8 LINUX/depdom/DOM_DocumentFragment.o
 .data.DW.ref.__gxx_personality_v0
                0x0000000000000000        0x8 LINUX/depdom/DOM_DocumentFragment.o
 .note.GNU-stack
                0x0000000000000000        0x0 LINUX/depdom/DOM_DocumentFragment.o
 _ZN11xercesc_2_810XMLDeleterD5Ev
                0x0000000000000000        0xc LINUX/depdom/DOM_Document.o
 .group         0x0000000000000000        0x8 LINUX/depdom/DOM_Document.o
 .group         0x0000000000000000        0x8 LINUX/depdom/DOM_Document.o
 .group         0x0000000000000000        0x8 LINUX/depdom/DOM_Document.o
 .group         0x0000000000000000        0x8 LINUX/depdom/DOM_Document.o
 .text._ZN11xercesc_2_810XMLDeleterD2Ev
                0x0000000000000000        0xf LINUX/depdom/DOM_Document.o
 .text._ZN11xercesc_2_810XMLDeleterD0Ev
                0x0000000000000000       0x13 LINUX/depdom/DOM_Document.o
 .data.rel.ro._ZTVN11xercesc_2_810XMLDeleterE
                0x0000000000000000       0x20 LINUX/depdom/DOM_Document.o
 .rodata._ZTSN11xercesc_2_810XMLDeleterE
                0x0000000000000000       0x1c LINUX/depdom/DOM_Document.o
 .data.rel.ro._ZTIN11xercesc_2_810XMLDeleterE
                0x0000000000000000       0x10 LINUX/depdom/DOM_Document.o
 .data.DW.ref.__gxx_personality_v0
                0x0000000000000000        0x8 LINUX/depdom/DOM_Document.o
 .note.GNU-stack
                0x0000000000000000        0x0 LINUX/depdom/DOM_Document.o
 .group         0x0000000000000000        0x8 LINUX/depdom/DOM_DocumentType.o
 .data.DW.ref.__gxx_personality_v0
                0x0000000000000000        0x8 LINUX/depdom/DOM_DocumentType.o
 .note.GNU-stack
                0x0000000000000000        0x0 LINUX/depdom/DOM_DocumentType.o
 .group         0x0000000000000000        0x8 LINUX/depdom/DOM_DOMException.o
 .group         0x0000000000000000        0x8 LINUX/depdom/DOM_DOMException.o
 .group         0x0000000000000000        0x8 LINUX/depdom/DOM_DOMException.o
 .group         0x0000000000000000        0x8 LINUX/depdom/DOM_DOMException.o
 .data.DW.ref.__gxx_personality_v0
                0x0000000000000000        0x8 LINUX/depdom/DOM_DOMException.o
 .note.GNU-stack
                0x0000000000000000        0x0 LINUX/depdom/DOM_DOMException.o
 _ZN11xercesc_2_810XMLDeleterD5Ev
                0x0000000000000000        0xc LINUX/depdom/DOM_DOMImplementation.o
 .group         0x0000000000000000        0x8 LINUX/depdom/DOM_DOMImplementation.o
 .group         0x0000000000000000        0x8 LINUX/depdom/DOM_DOMImplementation.o
 .group         0x0000000000000000        0x8 LINUX/depdom/DOM_DOMImplementation.o
 .group         0x0000000000000000        0x8 LINUX/depdom/DOM_DOMImplementation.o
 .text._ZN11xercesc_2_810XMLDeleterD2Ev
                0x0000000000000000        0xf LINUX/depdom/DOM_DOMImplementation.o
 .text._ZN11xercesc_2_810XMLDeleterD0Ev
                0x0000000000000000       0x13 LINUX/depdom/DOM_DOMImplementation.o
 .data.rel.ro._ZTVN11xercesc_2_810XMLDeleterE
                0x0000000000000000       0x20 LINUX/depdom/DOM_DOMImplementation.o
 .rodata._ZTSN11xercesc_2_810XMLDeleterE
                0x0000000000000000       0x1c LINUX/depdom/DOM_DOMImplementation.o
 .data.rel.ro._ZTIN11xercesc_2_810XMLDeleterE
                0x0000000000000000       0x10 LINUX/depdom/DOM_DOMImplementation.o
 .data.DW.ref.__gxx_personality_v0
                0x0000000000000000        0x8 LINUX/depdom/DOM_DOMImplementation.o
 .note.GNU-stack
                0x0000000000000000        0x0 LINUX/depdom/DOM_DOMImplementation.o
 .group         0x0000000000000000        0x8 LINUX/depdom/DOM_Element.o
 .data.DW.ref.__gxx_personality_v0
                0x0000000000000000        0x8 LINUX/depdom/DOM_Element.o
 .note.GNU-stack
                0x0000000000000000        0x0 LINUX/depdom/DOM_Element.o
 .group         0x0000000000000000        0x8 LINUX/depdom/DOM_Entity.o
 .data.DW.ref.__gxx_personality_v0
                0x0000000000000000        0x8 LINUX/depdom/DOM_Entity.o
 .note.GNU-stack
                0x0000000000000000        0x0 LINUX/depdom/DOM_Entity.o
 .group         0x0000000000000000        0x8 LINUX/depdom/DOM_EntityReference.o
 .data.DW.ref.__gxx_personality_v0
                0x0000000000000000        0x8 LINUX/depdom/DOM_EntityReference.o
 .note.GNU-stack
                0x0000000000000000        0x0 LINUX/depdom/DOM_EntityReference.o
 .group         0x0000000000000000        0x8 LINUX/depdom/DomMemDebug.o
 .data.DW.ref.__gxx_personality_v0
                0x0000000000000000        0x8 LINUX/depdom/DomMemDebug.o
 .note.GNU-stack
                0x0000000000000000        0x0 LINUX/depdom/DomMemDebug.o
 .group         0x0000000000000000        0x8 LINUX/depdom/DOM_NamedNodeMap.o
 .data.DW.ref.__gxx_personality_v0
                0x0000000000000000        0x8 LINUX/depdom/DOM_NamedNodeMap.o
 .note.GNU-stack
                0x0000000000000000        0x0 LINUX/depdom/DOM_NamedNodeMap.o
 .group         0x0000000000000000        0x8 LINUX/depdom/DOM_NodeFilter.o
 .group         0x0000000000000000        0x8 LINUX/depdom/DOM_NodeFilter.o
 .group         0x0000000000000000        0x8 LINUX/depdom/DOM_NodeFilter.o
 .group         0x0000000000000000        0x8 LINUX/depdom/DOM_NodeFilter.o
 .data.DW.ref.__gxx_personality_v0
                0x0000000000000000        0x8 LINUX/depdom/DOM_NodeFilter.o
 .note.GNU-stack
                0x0000000000000000        0x0 LINUX/depdom/DOM_NodeFilter.o
 .group         0x0000000000000000        0x8 LINUX/depdom/DOM_NodeIterator.o
 .data.DW.ref.__gxx_personality_v0
                0x0000000000000000        0x8 LINUX/depdom/DOM_NodeIterator.o
 .note.GNU-stack
                0x0000000000000000        0x0 LINUX/depdom/DOM_NodeIterator.o
 .group         0x0000000000000000        0x8 LINUX/depdom/DOM_NodeList.o
 .data.DW.ref.__gxx_personality_v0
                0x0000000000000000        0x8 LINUX/depdom/DOM_NodeList.o
 .note.GNU-stack
                0x0000000000000000        0x0 LINUX/depdom/DOM_NodeList.o
 _ZN11xercesc_2_810XMLDeleterD5Ev
                0x0000000000000000        0xc LINUX/depdom/DOM_Node.o
 .group         0x0000000000000000        0x8 LINUX/depdom/DOM_Node.o
 .group         0x0000000000000000        0x8 LINUX/depdom/DOM_Node.o
 .group         0x0000000000000000        0x8 LINUX/depdom/DOM_Node.o
 .group         0x0000000000000000        0x8 LINUX/depdom/DOM_Node.o
 .text._ZN11xercesc_2_810XMLDeleterD2Ev
                0x0000000000000000        0xf LINUX/depdom/DOM_Node.o
 .text._ZN11xercesc_2_810XMLDeleterD0Ev
                0x0000000000000000       0x13 LINUX/depdom/DOM_Node.o
 .data.rel.ro._ZTVN11xercesc_2_810XMLDeleterE
                0x0000000000000000       0x20 LINUX/depdom/DOM_Node.o
 .rodata._ZTSN11xercesc_2_810XMLDeleterE
                0x0000000000000000       0x1c LINUX/depdom/DOM_Node.o
 .data.rel.ro._ZTIN11xercesc_2_810XMLDeleterE
                0x0000000000000000       0x10 LINUX/depdom/DOM_Node.o
 .data.DW.ref.__gxx_personality_v0
                0x0000000000000000        0x8 LINUX/depdom/DOM_Node.o
 .note.GNU-stack
                0x0000000000000000        0x0 LINUX/depdom/DOM_Node.o
 .group         0x0000000000000000        0x8 LINUX/depdom/DOM_Notation.o
 .data.DW.ref.__gxx_personality_v0
                0x0000000000000000        0x8 LINUX/depdom/DOM_Notation.o
 .note.GNU-stack
                0x0000000000000000        0x0 LINUX/depdom/DOM_Notation.o
 _ZN11xercesc_2_816XMLErrorReporterD5Ev
                0x0000000000000000        0xc LINUX/depdom/DOMParser.o
 _ZN11xercesc_2_810XMLDeleterD5Ev
                0x0000000000000000        0xc LINUX/depdom/DOMParser.o
 .group         0x0000000000000000        0x8 LINUX/depdom/DOMParser.o
 _ZN11xercesc_2_813XSerializableD5Ev
                0x0000000000000000        0xc LINUX/depdom/DOMParser.o
 _ZN11xercesc_2_810XMLRefInfoD5Ev
                0x0000000000000000        0xc LINUX/depdom/DOMParser.o
 .group         0x0000000000000000        0x8 LINUX/depdom/DOMParser.o
 .group         0x0000000000000000        0x8 LINUX/depdom/DOMParser.o
 .group         0x0000000000000000        0x8 LINUX/depdom/DOMParser.o
 .group         0x0000000000000000        0x8 LINUX/depdom/DOMParser.o
 _ZN11xercesc_2_813XMLAttDefListD5Ev
                0x0000000000000000        0xc LINUX/depdom/DOMParser.o
 .group         0x0000000000000000        0x8 LINUX/depdom/DOMParser.o
 _ZN11xercesc_2_818XMLDocumentHandlerD5Ev
                0x0000000000000000        0xc LINUX/depdom/DOMParser.o
 .group         0x0000000000000000        0x8 LINUX/depdom/DOMParser.o
 _ZN11xercesc_2_816XMLEntityHandlerD5Ev
                0x0000000000000000        0xc LINUX/depdom/DOMParser.o
 _ZN11xercesc_2_814DocTypeHandlerD5Ev
                0x0000000000000000        0xc LINUX/depdom/DOMParser.o
 .group         0x0000000000000000        0x8 LINUX/depdom/DOMParser.o
 .group         0x0000000000000000        0x8 LINUX/depdom/DOMParser.o
 .group         0x0000000000000000        0x8 LINUX/depdom/DOMParser.o
 .group         0x0000000000000000        0x8 LINUX/depdom/DOMParser.o
 _ZN11xercesc_2_815ContentSpecNodeD5Ev
                0x0000000000000000        0xc LINUX/depdom/DOMParser.o
 _ZN11xercesc_2_813DTDEntityDeclD5Ev
                0x0000000000000000        0xc LINUX/depdom/DOMParser.o
 _ZN11xercesc_2_811IOExceptionD5Ev
                0x0000000000000000        0xc LINUX/depdom/DOMParser.o
 _ZN11xercesc_2_830ArrayIndexOutOfBoundsExceptionD5Ev
                0x0000000000000000        0xc LINUX/depdom/DOMParser.o
 _ZN11xercesc_2_819EmptyStackExceptionD5Ev
                0x0000000000000000        0xc LINUX/depdom/DOMParser.o
 .group         0x0000000000000000        0x8 LINUX/depdom/DOMParser.o
 .group         0x0000000000000000        0x8 LINUX/depdom/DOMParser.o
 .group         0x0000000000000000        0x8 LINUX/depdom/DOMParser.o
 .group         0x0000000000000000        0x8 LINUX/depdom/DOMParser.o
 .group         0x0000000000000000        0x8 LINUX/depdom/DOMParser.o
 .group         0x0000000000000000        0x8 LINUX/depdom/DOMParser.o
 .group         0x0000000000000000        0x8 LINUX/depdom/DOMParser.o
 .group         0x0000000000000000        0x8 LINUX/depdom/DOMParser.o
 .group         0x0000000000000000        0x8 LINUX/depdom/DOMParser.o
 .group         0x0000000000000000        0x8 LINUX/depdom/DOMParser.o
 .group         0x0000000000000000        0x8 LINUX/depdom/DOMParser.o
 .group         0x0000000000000000        0x8 LINUX/depdom/DOMParser.o
 .group         0x0000000000000000        0x8 LINUX/depdom/DOMParser.o
 .group         0x0000000000000000        0x8 LINUX/depdom/DOMParser.o
 .group         0x0000000000000000        0x8 LINUX/depdom/DOMParser.o
 .group         0x0000000000000000        0x8 LINUX/depdom/DOMParser.o
 .group         0x0000000000000000        0x8 LINUX/depdom/DOMParser.o
 .group         0x0000000000000000        0x8 LINUX/depdom/DOMParser.o
 .group         0x0000000000000000        0x8 LINUX/depdom/DOMParser.o
 .group         0x0000000000000000        0x8 LINUX/depdom/DOMParser.o
 .group         0x0000000000000000        0x8 LINUX/depdom/DOMParser.o
 .group         0x0000000000000000        0x8 LINUX/depdom/DOMParser.o
 .group         0x0000000000000000        0x8 LINUX/depdom/DOMParser.o
 .group         0x0000000000000000        0x8 LINUX/depdom/DOMParser.o
 .group         0x0000000000000000        0x8 LINUX/depdom/DOMParser.o
 .group         0x0000000000000000        0x8 LINUX/depdom/DOMParser.o
 .group         0x0000000000000000        0x8 LINUX/depdom/DOMParser.o
 .group         0x0000000000000000        0x8 LINUX/depdom/DOMParser.o
 .group         0x0000000000000000        0x8 LINUX/depdom/DOMParser.o
 .group         0x0000000000000000        0x8 LINUX/depdom/DOMParser.o
 .group         0x0000000000000000        0x8 LINUX/depdom/DOMParser.o
 .group         0x0000000000000000        0x8 LINUX/depdom/DOMParser.o
 .group         0x0000000000000000        0x8 LINUX/depdom/DOMParser.o
 .group         0x0000000000000000        0x8 LINUX/depdom/DOMParser.o
 .group         0x0000000000000000        0x8 LINUX/depdom/DOMParser.o
 .group         0x0000000000000000        0x8 LINUX/depdom/DOMParser.o
 .group         0x0000000000000000        0x8 LINUX/depdom/DOMParser.o
 .group         0x0000000000000000        0x8 LINUX/depdom/DOMParser.o
 .group         0x0000000000000000        0x8 LINUX/depdom/DOMParser.o
 .group         0x0000000000000000        0x8 LINUX/depdom/DOMParser.o
 .group         0x0000000000000000        0x8 LINUX/depdom/DOMParser.o
 .group         0x0000000000000000        0x8 LINUX/depdom/DOMParser.o
 .group         0x0000000000000000        0x8 LINUX/depdom/DOMParser.o
 .group         0x0000000000000000        0x8 LINUX/depdom/DOMParser.o
 .group         0x0000000000000000        0x8 LINUX/depdom/DOMParser.o
 .group         0x0000000000000000        0x8 LINUX/depdom/DOMParser.o
 .group         0x0000000000000000        0x8 LINUX/depdom/DOMParser.o
 .group         0x0000000000000000        0x8 LINUX/depdom/DOMParser.o
 .group         0x0000000000000000        0x8 LINUX/depdom/DOMParser.o
 .group         0x0000000000000000        0x8 LINUX/depdom/DOMParser.o
 .group         0x0000000000000000        0x8 LINUX/depdom/DOMParser.o
 .group         0x0000000000000000        0x8 LINUX/depdom/DOMParser.o
 .group         0x0000000000000000        0x8 LINUX/depdom/DOMParser.o
 .group         0x0000000000000000        0x8 LINUX/depdom/DOMParser.o
 .group         0x0000000000000000        0x8 LINUX/depdom/DOMParser.o
 .text._ZN11xercesc_2_810XMLDeleterD2Ev
                0x0000000000000000        0xf LINUX/depdom/DOMParser.o
 .text._ZNK11xercesc_2_830ArrayIndexOutOfBoundsException7getTypeEv
                0x0000000000000000        0x8 LINUX/depdom/DOMParser.o
 .text._ZN11xercesc_2_810XMLDeleterD0Ev
                0x0000000000000000       0x13 LINUX/depdom/DOMParser.o
 .text._ZN11xercesc_2_830ArrayIndexOutOfBoundsExceptionD2Ev
                0x0000000000000000       0x13 LINUX/depdom/DOMParser.o
 .text._ZNK11xercesc_2_830ArrayIndexOutOfBoundsException9duplicateEv
                0x0000000000000000       0x6c LINUX/depdom/DOMParser.o
 .text._ZN11xercesc_2_830ArrayIndexOutOfBoundsExceptionD0Ev
                0x0000000000000000       0x20 LINUX/depdom/DOMParser.o
 .data.rel.ro._ZTVN11xercesc_2_810XMLDeleterE
                0x0000000000000000       0x20 LINUX/depdom/DOMParser.o
 .rodata._ZTSN11xercesc_2_810XMLDeleterE
                0x0000000000000000       0x1c LINUX/depdom/DOMParser.o
 .data.rel.ro._ZTIN11xercesc_2_810XMLDeleterE
                0x0000000000000000       0x10 LINUX/depdom/DOMParser.o
 .data.rel.ro._ZTIN11xercesc_2_87XMemoryE
                0x0000000000000000       0x10 LINUX/depdom/DOMParser.o
 .rodata._ZTSN11xercesc_2_87XMemoryE
                0x0000000000000000       0x18 LINUX/depdom/DOMParser.o
 .data.rel.ro._ZTIN11xercesc_2_830ArrayIndexOutOfBoundsExceptionE
                0x0000000000000000       0x18 LINUX/depdom/DOMParser.o
 .rodata._ZTSN11xercesc_2_830ArrayIndexOutOfBoundsExceptionE
                0x0000000000000000       0x30 LINUX/depdom/DOMParser.o
 .data.rel.ro._ZTVN11xercesc_2_830ArrayIndexOutOfBoundsExceptionE
                0x0000000000000000       0x30 LINUX/depdom/DOMParser.o
 .data.DW.ref.__gxx_personality_v0
                0x0000000000000000        0x8 LINUX/depdom/DOMParser.o
 .note.GNU-stack
                0x0000000000000000        0x0 LINUX/depdom/DOMParser.o
 .group         0x0000000000000000        0x8 LINUX/depdom/DOM_ProcessingInstruction.o
 .data.DW.ref.__gxx_personality_v0
                0x0000000000000000        0x8 LINUX/depdom/DOM_ProcessingInstruction.o
 .note.GNU-stack
                0x0000000000000000        0x0 LINUX/depdom/DOM_ProcessingInstruction.o
 .group         0x0000000000000000        0x8 LINUX/depdom/DOM_RangeException.o
 .group         0x0000000000000000        0x8 LINUX/depdom/DOM_RangeException.o
 .group         0x0000000000000000        0x8 LINUX/depdom/DOM_RangeException.o
 .group         0x0000000000000000        0x8 LINUX/depdom/DOM_RangeException.o
 .data.DW.ref.__gxx_personality_v0
                0x0000000000000000        0x8 LINUX/depdom/DOM_RangeException.o
 .note.GNU-stack
                0x0000000000000000        0x0 LINUX/depdom/DOM_RangeException.o
 _ZN11xercesc_2_810XMLDeleterD5Ev
                0x0000000000000000        0xc LINUX/depdom/DOM_Range.o
 .group         0x0000000000000000        0x8 LINUX/depdom/DOM_Range.o
 .group         0x0000000000000000        0x8 LINUX/depdom/DOM_Range.o
 .group         0x0000000000000000        0x8 LINUX/depdom/DOM_Range.o
 .group         0x0000000000000000        0x8 LINUX/depdom/DOM_Range.o
 .text._ZN11xercesc_2_810XMLDeleterD2Ev
                0x0000000000000000        0xf LINUX/depdom/DOM_Range.o
 .text._ZN11xercesc_2_810XMLDeleterD0Ev
                0x0000000000000000       0x13 LINUX/depdom/DOM_Range.o
 .data.rel.ro._ZTVN11xercesc_2_810XMLDeleterE
                0x0000000000000000       0x20 LINUX/depdom/DOM_Range.o
 .rodata._ZTSN11xercesc_2_810XMLDeleterE
                0x0000000000000000       0x1c LINUX/depdom/DOM_Range.o
 .data.rel.ro._ZTIN11xercesc_2_810XMLDeleterE
                0x0000000000000000       0x10 LINUX/depdom/DOM_Range.o
 .data.DW.ref.__gxx_personality_v0
                0x0000000000000000        0x8 LINUX/depdom/DOM_Range.o
 .note.GNU-stack
                0x0000000000000000        0x0 LINUX/depdom/DOM_Range.o
 _ZN11xercesc_2_810XMLDeleterD5Ev
                0x0000000000000000        0xc LINUX/depdom/DOMString.o
 .group         0x0000000000000000        0x8 LINUX/depdom/DOMString.o
 .group         0x0000000000000000        0x8 LINUX/depdom/DOMString.o
 .group         0x0000000000000000        0x8 LINUX/depdom/DOMString.o
 .group         0x0000000000000000        0x8 LINUX/depdom/DOMString.o
 .text._ZN11xercesc_2_810XMLDeleterD2Ev
                0x0000000000000000        0xf LINUX/depdom/DOMString.o
 .text._ZN11xercesc_2_810XMLDeleterD0Ev
                0x0000000000000000       0x13 LINUX/depdom/DOMString.o
 .data.rel.ro._ZTVN11xercesc_2_810XMLDeleterE
                0x0000000000000000       0x20 LINUX/depdom/DOMString.o
 .rodata._ZTSN11xercesc_2_810XMLDeleterE
                0x0000000000000000       0x1c LINUX/depdom/DOMString.o
 .data.rel.ro._ZTIN11xercesc_2_810XMLDeleterE
                0x0000000000000000       0x10 LINUX/depdom/DOMString.o
 .data.DW.ref.__gxx_personality_v0
                0x0000000000000000        0x8 LINUX/depdom/DOMString.o
 .note.GNU-stack
                0x0000000000000000        0x0 LINUX/depdom/DOMString.o
 .group         0x0000000000000000        0x8 LINUX/depdom/DOM_Text.o
 .data.DW.ref.__gxx_personality_v0
                0x0000000000000000        0x8 LINUX/depdom/DOM_Text.o
 .note.GNU-stack
                0x0000000000000000        0x0 LINUX/depdom/DOM_Text.o
 .group         0x0000000000000000        0x8 LINUX/depdom/DOM_TreeWalker.o
 .data.DW.ref.__gxx_personality_v0
                0x0000000000000000        0x8 LINUX/depdom/DOM_TreeWalker.o
 .note.GNU-stack
                0x0000000000000000        0x0 LINUX/depdom/DOM_TreeWalker.o
 .group         0x0000000000000000        0x8 LINUX/depdom/DOM_XMLDecl.o
 .data.DW.ref.__gxx_personality_v0
                0x0000000000000000        0x8 LINUX/depdom/DOM_XMLDecl.o
 .note.GNU-stack
                0x0000000000000000        0x0 LINUX/depdom/DOM_XMLDecl.o
 _ZN11xercesc_2_810XMLDeleterD5Ev
                0x0000000000000000        0xc LINUX/depdom/DStringPool.o
 .group         0x0000000000000000        0x8 LINUX/depdom/DStringPool.o
 .group         0x0000000000000000        0x8 LINUX/depdom/DStringPool.o
 .group         0x0000000000000000        0x8 LINUX/depdom/DStringPool.o
 .group         0x0000000000000000        0x8 LINUX/depdom/DStringPool.o
 .text._ZN11xercesc_2_810XMLDeleterD2Ev
                0x0000000000000000        0xf LINUX/depdom/DStringPool.o
 .text._ZN11xercesc_2_810XMLDeleterD0Ev
                0x0000000000000000       0x13 LINUX/depdom/DStringPool.o
 .data.rel.ro._ZTVN11xercesc_2_810XMLDeleterE
                0x0000000000000000       0x20 LINUX/depdom/DStringPool.o
 .rodata._ZTSN11xercesc_2_810XMLDeleterE
                0x0000000000000000       0x1c LINUX/depdom/DStringPool.o
 .data.rel.ro._ZTIN11xercesc_2_810XMLDeleterE
                0x0000000000000000       0x10 LINUX/depdom/DStringPool.o
 .data.DW.ref.__gxx_personality_v0
                0x0000000000000000        0x8 LINUX/depdom/DStringPool.o
 .note.GNU-stack
                0x0000000000000000        0x0 LINUX/depdom/DStringPool.o
 _ZN11xercesc_2_810XMLDeleterD5Ev
                0x0000000000000000        0xc LINUX/depdom/ElementDefinitionImpl.o
 .group         0x0000000000000000        0x8 LINUX/depdom/ElementDefinitionImpl.o
 .group         0x0000000000000000        0x8 LINUX/depdom/ElementDefinitionImpl.o
 .group         0x0000000000000000        0x8 LINUX/depdom/ElementDefinitionImpl.o
 .group         0x0000000000000000        0x8 LINUX/depdom/ElementDefinitionImpl.o
 .group         0x0000000000000000        0x8 LINUX/depdom/ElementDefinitionImpl.o
 .group         0x0000000000000000        0x8 LINUX/depdom/ElementDefinitionImpl.o
 .group         0x0000000000000000        0x8 LINUX/depdom/ElementDefinitionImpl.o
 .text._ZN11xercesc_2_810XMLDeleterD2Ev
                0x0000000000000000        0xf LINUX/depdom/ElementDefinitionImpl.o
 .text._ZN11xercesc_2_810XMLDeleterD0Ev
                0x0000000000000000       0x13 LINUX/depdom/ElementDefinitionImpl.o
 .data.rel.ro._ZTVN11xercesc_2_810XMLDeleterE
                0x0000000000000000       0x20 LINUX/depdom/ElementDefinitionImpl.o
 .rodata._ZTSN11xercesc_2_810XMLDeleterE
                0x0000000000000000       0x1c LINUX/depdom/ElementDefinitionImpl.o
 .data.rel.ro._ZTIN11xercesc_2_810XMLDeleterE
                0x0000000000000000       0x10 LINUX/depdom/ElementDefinitionImpl.o
 .data.DW.ref.__gxx_personality_v0
                0x0000000000000000        0x8 LINUX/depdom/ElementDefinitionImpl.o
 .note.GNU-stack
                0x0000000000000000        0x0 LINUX/depdom/ElementDefinitionImpl.o
 _ZN11xercesc_2_810XMLDeleterD5Ev
                0x0000000000000000        0xc LINUX/depdom/ElementImpl.o
 .group         0x0000000000000000        0x8 LINUX/depdom/ElementImpl.o
 .group         0x0000000000000000        0x8 LINUX/depdom/ElementImpl.o
 .group         0x0000000000000000        0x8 LINUX/depdom/ElementImpl.o
 .group         0x0000000000000000        0x8 LINUX/depdom/ElementImpl.o
 .group         0x0000000000000000        0x8 LINUX/depdom/ElementImpl.o
 .group         0x0000000000000000        0x8 LINUX/depdom/ElementImpl.o
 .group         0x0000000000000000        0x8 LINUX/depdom/ElementImpl.o
 .text._ZN11xercesc_2_810XMLDeleterD2Ev
                0x0000000000000000        0xf LINUX/depdom/ElementImpl.o
 .text._ZN11xercesc_2_810XMLDeleterD0Ev
                0x0000000000000000       0x13 LINUX/depdom/ElementImpl.o
 .data.rel.ro._ZTVN11xercesc_2_810XMLDeleterE
                0x0000000000000000       0x20 LINUX/depdom/ElementImpl.o
 .rodata._ZTSN11xercesc_2_810XMLDeleterE
                0x0000000000000000       0x1c LINUX/depdom/ElementImpl.o
 .data.rel.ro._ZTIN11xercesc_2_810XMLDeleterE
                0x0000000000000000       0x10 LINUX/depdom/ElementImpl.o
 .data.DW.ref.__gxx_personality_v0
                0x0000000000000000        0x8 LINUX/depdom/ElementImpl.o
 .note.GNU-stack
                0x0000000000000000        0x0 LINUX/depdom/ElementImpl.o
 _ZN11xercesc_2_810XMLDeleterD5Ev
                0x0000000000000000        0xc LINUX/depdom/ElementNSImpl.o
 _ZN11xercesc_2_813ElementNSImplD5Ev
                0x0000000000000000        0xc LINUX/depdom/ElementNSImpl.o
 .group         0x0000000000000000        0x8 LINUX/depdom/ElementNSImpl.o
 .group         0x0000000000000000        0x8 LINUX/depdom/ElementNSImpl.o
 .group         0x0000000000000000        0x8 LINUX/depdom/ElementNSImpl.o
 .group         0x0000000000000000        0x8 LINUX/depdom/ElementNSImpl.o
 .group         0x0000000000000000        0x8 LINUX/depdom/ElementNSImpl.o
 .group         0x0000000000000000        0x8 LINUX/depdom/ElementNSImpl.o
 .group         0x0000000000000000        0x8 LINUX/depdom/ElementNSImpl.o
 .text._ZN11xercesc_2_810XMLDeleterD2Ev
                0x0000000000000000        0xf LINUX/depdom/ElementNSImpl.o
 .text._ZN11xercesc_2_810XMLDeleterD0Ev
                0x0000000000000000       0x13 LINUX/depdom/ElementNSImpl.o
 .data.rel.ro._ZTVN11xercesc_2_810XMLDeleterE
                0x0000000000000000       0x20 LINUX/depdom/ElementNSImpl.o
 .rodata._ZTSN11xercesc_2_810XMLDeleterE
                0x0000000000000000       0x1c LINUX/depdom/ElementNSImpl.o
 .data.rel.ro._ZTIN11xercesc_2_810XMLDeleterE
                0x0000000000000000       0x10 LINUX/depdom/ElementNSImpl.o
 .data.DW.ref.__gxx_personality_v0
                0x0000000000000000        0x8 LINUX/depdom/ElementNSImpl.o
 .note.GNU-stack
                0x0000000000000000        0x0 LINUX/depdom/ElementNSImpl.o
 _ZN11xercesc_2_810XMLDeleterD5Ev
                0x0000000000000000        0xc LINUX/depdom/EntityImpl.o
 .group         0x0000000000000000        0x8 LINUX/depdom/EntityImpl.o
 .group         0x0000000000000000        0x8 LINUX/depdom/EntityImpl.o
 .group         0x0000000000000000        0x8 LINUX/depdom/EntityImpl.o
 .group         0x0000000000000000        0x8 LINUX/depdom/EntityImpl.o
 .group         0x0000000000000000        0x8 LINUX/depdom/EntityImpl.o
 .group         0x0000000000000000        0x8 LINUX/depdom/EntityImpl.o
 .group         0x0000000000000000        0x8 LINUX/depdom/EntityImpl.o
 .text._ZN11xercesc_2_810XMLDeleterD2Ev
                0x0000000000000000        0xf LINUX/depdom/EntityImpl.o
 .text._ZN11xercesc_2_810XMLDeleterD0Ev
                0x0000000000000000       0x13 LINUX/depdom/EntityImpl.o
 .data.rel.ro._ZTVN11xercesc_2_810XMLDeleterE
                0x0000000000000000       0x20 LINUX/depdom/EntityImpl.o
 .rodata._ZTSN11xercesc_2_810XMLDeleterE
                0x0000000000000000       0x1c LINUX/depdom/EntityImpl.o
 .data.rel.ro._ZTIN11xercesc_2_810XMLDeleterE
                0x0000000000000000       0x10 LINUX/depdom/EntityImpl.o
 .data.DW.ref.__gxx_personality_v0
                0x0000000000000000        0x8 LINUX/depdom/EntityImpl.o
 .note.GNU-stack
                0x0000000000000000        0x0 LINUX/depdom/EntityImpl.o
 _ZN11xercesc_2_810XMLDeleterD5Ev
                0x0000000000000000        0xc LINUX/depdom/EntityReferenceImpl.o
 .group         0x0000000000000000        0x8 LINUX/depdom/EntityReferenceImpl.o
 .group         0x0000000000000000        0x8 LINUX/depdom/EntityReferenceImpl.o
 .group         0x0000000000000000        0x8 LINUX/depdom/EntityReferenceImpl.o
 .group         0x0000000000000000        0x8 LINUX/depdom/EntityReferenceImpl.o
 .group         0x0000000000000000        0x8 LINUX/depdom/EntityReferenceImpl.o
 .group         0x0000000000000000        0x8 LINUX/depdom/EntityReferenceImpl.o
 .group         0x0000000000000000        0x8 LINUX/depdom/EntityReferenceImpl.o
 .text._ZN11xercesc_2_810XMLDeleterD2Ev
                0x0000000000000000        0xf LINUX/depdom/EntityReferenceImpl.o
 .text._ZN11xercesc_2_810XMLDeleterD0Ev
                0x0000000000000000       0x13 LINUX/depdom/EntityReferenceImpl.o
 .data.rel.ro._ZTVN11xercesc_2_810XMLDeleterE
                0x0000000000000000       0x20 LINUX/depdom/EntityReferenceImpl.o
 .rodata._ZTSN11xercesc_2_810XMLDeleterE
                0x0000000000000000       0x1c LINUX/depdom/EntityReferenceImpl.o
 .data.rel.ro._ZTIN11xercesc_2_810XMLDeleterE
                0x0000000000000000       0x10 LINUX/depdom/EntityReferenceImpl.o
 .data.DW.ref.__gxx_personality_v0
                0x0000000000000000        0x8 LINUX/depdom/EntityReferenceImpl.o
 .note.GNU-stack
                0x0000000000000000        0x0 LINUX/depdom/EntityReferenceImpl.o
 _ZN11xercesc_2_810XMLDeleterD5Ev
                0x0000000000000000        0xc LINUX/depdom/NamedNodeMapImpl.o
 .group         0x0000000000000000        0x8 LINUX/depdom/NamedNodeMapImpl.o
 .group         0x0000000000000000        0x8 LINUX/depdom/NamedNodeMapImpl.o
 .group         0x0000000000000000        0x8 LINUX/depdom/NamedNodeMapImpl.o
 .group         0x0000000000000000        0x8 LINUX/depdom/NamedNodeMapImpl.o
 .group         0x0000000000000000        0x8 LINUX/depdom/NamedNodeMapImpl.o
 .group         0x0000000000000000        0x8 LINUX/depdom/NamedNodeMapImpl.o
 .group         0x0000000000000000        0x8 LINUX/depdom/NamedNodeMapImpl.o
 .group         0x0000000000000000        0x8 LINUX/depdom/NamedNodeMapImpl.o
 .group         0x0000000000000000        0x8 LINUX/depdom/NamedNodeMapImpl.o
 .text._ZN11xercesc_2_810XMLDeleterD2Ev
                0x0000000000000000        0xf LINUX/depdom/NamedNodeMapImpl.o
 .text._ZN11xercesc_2_810XMLDeleterD0Ev
                0x0000000000000000       0x13 LINUX/depdom/NamedNodeMapImpl.o
 .data.rel.ro._ZTVN11xercesc_2_810XMLDeleterE
                0x0000000000000000       0x20 LINUX/depdom/NamedNodeMapImpl.o
 .rodata._ZTSN11xercesc_2_810XMLDeleterE
                0x0000000000000000       0x1c LINUX/depdom/NamedNodeMapImpl.o
 .data.rel.ro._ZTIN11xercesc_2_810XMLDeleterE
                0x0000000000000000       0x10 LINUX/depdom/NamedNodeMapImpl.o
 .data.rel.ro._ZTIN11xercesc_2_87XMemoryE
                0x0000000000000000       0x10 LINUX/depdom/NamedNodeMapImpl.o
 .rodata._ZTSN11xercesc_2_87XMemoryE
                0x0000000000000000       0x18 LINUX/depdom/NamedNodeMapImpl.o
 .data.DW.ref.__gxx_personality_v0
                0x0000000000000000        0x8 LINUX/depdom/NamedNodeMapImpl.o
 .note.GNU-stack
                0x0000000000000000        0x0 LINUX/depdom/NamedNodeMapImpl.o
 _ZN11xercesc_2_810XMLDeleterD5Ev
                0x0000000000000000        0xc LINUX/depdom/NodeIDMap.o
 .group         0x0000000000000000        0x8 LINUX/depdom/NodeIDMap.o
 _ZN11xercesc_2_816RuntimeExceptionD5Ev
                0x0000000000000000        0xc LINUX/depdom/NodeIDMap.o
 .group         0x0000000000000000        0x8 LINUX/depdom/NodeIDMap.o
 .group         0x0000000000000000        0x8 LINUX/depdom/NodeIDMap.o
 .group         0x0000000000000000        0x8 LINUX/depdom/NodeIDMap.o
 .group         0x0000000000000000        0x8 LINUX/depdom/NodeIDMap.o
 .group         0x0000000000000000        0x8 LINUX/depdom/NodeIDMap.o
 .group         0x0000000000000000        0x8 LINUX/depdom/NodeIDMap.o
 .group         0x0000000000000000        0x8 LINUX/depdom/NodeIDMap.o
 .group         0x0000000000000000        0x8 LINUX/depdom/NodeIDMap.o
 .group         0x0000000000000000        0x8 LINUX/depdom/NodeIDMap.o
 .group         0x0000000000000000        0x8 LINUX/depdom/NodeIDMap.o
 .group         0x0000000000000000        0x8 LINUX/depdom/NodeIDMap.o
 .group         0x0000000000000000        0x8 LINUX/depdom/NodeIDMap.o
 .group         0x0000000000000000        0x8 LINUX/depdom/NodeIDMap.o
 .text._ZN11xercesc_2_810XMLDeleterD2Ev
                0x0000000000000000        0xf LINUX/depdom/NodeIDMap.o
 .text._ZN11xercesc_2_810XMLDeleterD0Ev
                0x0000000000000000       0x13 LINUX/depdom/NodeIDMap.o
 .data.rel.ro._ZTVN11xercesc_2_810XMLDeleterE
                0x0000000000000000       0x20 LINUX/depdom/NodeIDMap.o
 .rodata._ZTSN11xercesc_2_810XMLDeleterE
                0x0000000000000000       0x1c LINUX/depdom/NodeIDMap.o
 .data.rel.ro._ZTIN11xercesc_2_810XMLDeleterE
                0x0000000000000000       0x10 LINUX/depdom/NodeIDMap.o
 .data.rel.ro._ZTIN11xercesc_2_87XMemoryE
                0x0000000000000000       0x10 LINUX/depdom/NodeIDMap.o
 .rodata._ZTSN11xercesc_2_87XMemoryE
                0x0000000000000000       0x18 LINUX/depdom/NodeIDMap.o
 .data.DW.ref.__gxx_personality_v0
                0x0000000000000000        0x8 LINUX/depdom/NodeIDMap.o
 .note.GNU-stack
                0x0000000000000000        0x0 LINUX/depdom/NodeIDMap.o
 _ZN11xercesc_2_810XMLDeleterD5Ev
                0x0000000000000000        0xc LINUX/depdom/NodeImpl.o
 .group         0x0000000000000000        0x8 LINUX/depdom/NodeImpl.o
 .group         0x0000000000000000        0x8 LINUX/depdom/NodeImpl.o
 .group         0x0000000000000000        0x8 LINUX/depdom/NodeImpl.o
 .group         0x0000000000000000        0x8 LINUX/depdom/NodeImpl.o
 .group         0x0000000000000000        0x8 LINUX/depdom/NodeImpl.o
 .group         0x0000000000000000        0x8 LINUX/depdom/NodeImpl.o
 .group         0x0000000000000000        0x8 LINUX/depdom/NodeImpl.o
 .text._ZN11xercesc_2_810XMLDeleterD2Ev
                0x0000000000000000        0xf LINUX/depdom/NodeImpl.o
 .text._ZN11xercesc_2_810XMLDeleterD0Ev
                0x0000000000000000       0x13 LINUX/depdom/NodeImpl.o
 .data.rel.ro._ZTVN11xercesc_2_810XMLDeleterE
                0x0000000000000000       0x20 LINUX/depdom/NodeImpl.o
 .rodata._ZTSN11xercesc_2_810XMLDeleterE
                0x0000000000000000       0x1c LINUX/depdom/NodeImpl.o
 .data.rel.ro._ZTIN11xercesc_2_810XMLDeleterE
                0x0000000000000000       0x10 LINUX/depdom/NodeImpl.o
 .data.DW.ref.__gxx_personality_v0
                0x0000000000000000        0x8 LINUX/depdom/NodeImpl.o
 .note.GNU-stack
                0x0000000000000000        0x0 LINUX/depdom/NodeImpl.o
 _ZN11xercesc_2_810XMLDeleterD5Ev
                0x0000000000000000        0xc LINUX/depdom/NodeIteratorImpl.o
 .group         0x0000000000000000        0x8 LINUX/depdom/NodeIteratorImpl.o
 .group         0x0000000000000000        0x8 LINUX/depdom/NodeIteratorImpl.o
 _ZN11xercesc_2_830ArrayIndexOutOfBoundsExceptionD5Ev
                0x0000000000000000        0xc LINUX/depdom/NodeIteratorImpl.o
 .group         0x0000000000000000        0x8 LINUX/depdom/NodeIteratorImpl.o
 .group         0x0000000000000000        0x8 LINUX/depdom/NodeIteratorImpl.o
 .group         0x0000000000000000        0x8 LINUX/depdom/NodeIteratorImpl.o
 .group         0x0000000000000000        0x8 LINUX/depdom/NodeIteratorImpl.o
 .group         0x0000000000000000        0x8 LINUX/depdom/NodeIteratorImpl.o
 .group         0x0000000000000000        0x8 LINUX/depdom/NodeIteratorImpl.o
 .group         0x0000000000000000        0x8 LINUX/depdom/NodeIteratorImpl.o
 .group         0x0000000000000000        0x8 LINUX/depdom/NodeIteratorImpl.o
 .group         0x0000000000000000        0x8 LINUX/depdom/NodeIteratorImpl.o
 .group         0x0000000000000000        0x8 LINUX/depdom/NodeIteratorImpl.o
 .group         0x0000000000000000        0x8 LINUX/depdom/NodeIteratorImpl.o
 .text._ZN11xercesc_2_810XMLDeleterD2Ev
                0x0000000000000000        0xf LINUX/depdom/NodeIteratorImpl.o
 .text._ZNK11xercesc_2_830ArrayIndexOutOfBoundsException7getTypeEv
                0x0000000000000000        0x8 LINUX/depdom/NodeIteratorImpl.o
 .text._ZN11xercesc_2_810XMLDeleterD0Ev
                0x0000000000000000       0x13 LINUX/depdom/NodeIteratorImpl.o
 .text._ZN11xercesc_2_830ArrayIndexOutOfBoundsExceptionD2Ev
                0x0000000000000000       0x13 LINUX/depdom/NodeIteratorImpl.o
 .text._ZNK11xercesc_2_830ArrayIndexOutOfBoundsException9duplicateEv
                0x0000000000000000       0x6c LINUX/depdom/NodeIteratorImpl.o
 .text._ZN11xercesc_2_830ArrayIndexOutOfBoundsExceptionD0Ev
                0x0000000000000000       0x20 LINUX/depdom/NodeIteratorImpl.o
 .data.rel.ro._ZTVN11xercesc_2_810XMLDeleterE
                0x0000000000000000       0x20 LINUX/depdom/NodeIteratorImpl.o
 .rodata._ZTSN11xercesc_2_810XMLDeleterE
                0x0000000000000000       0x1c LINUX/depdom/NodeIteratorImpl.o
 .data.rel.ro._ZTIN11xercesc_2_810XMLDeleterE
                0x0000000000000000       0x10 LINUX/depdom/NodeIteratorImpl.o
 .data.rel.ro._ZTIN11xercesc_2_830ArrayIndexOutOfBoundsExceptionE
                0x0000000000000000       0x18 LINUX/depdom/NodeIteratorImpl.o
 .rodata._ZTSN11xercesc_2_830ArrayIndexOutOfBoundsExceptionE
                0x0000000000000000       0x30 LINUX/depdom/NodeIteratorImpl.o
 .data.rel.ro._ZTVN11xercesc_2_830ArrayIndexOutOfBoundsExceptionE
                0x0000000000000000       0x30 LINUX/depdom/NodeIteratorImpl.o
 .data.DW.ref.__gxx_personality_v0
                0x0000000000000000        0x8 LINUX/depdom/NodeIteratorImpl.o
 .note.GNU-stack
                0x0000000000000000        0x0 LINUX/depdom/NodeIteratorImpl.o
 .group         0x0000000000000000        0x8 LINUX/depdom/NodeListImpl.o
 .group         0x0000000000000000        0x8 LINUX/depdom/NodeListImpl.o
 .group         0x0000000000000000        0x8 LINUX/depdom/NodeListImpl.o
 .group         0x0000000000000000        0x8 LINUX/depdom/NodeListImpl.o
 .data.DW.ref.__gxx_personality_v0
                0x0000000000000000        0x8 LINUX/depdom/NodeListImpl.o
 .note.GNU-stack
                0x0000000000000000        0x0 LINUX/depdom/NodeListImpl.o
 _ZN11xercesc_2_810XMLDeleterD5Ev
                0x0000000000000000        0xc LINUX/depdom/NodeVector.o
 .group         0x0000000000000000        0x8 LINUX/depdom/NodeVector.o
 .group         0x0000000000000000        0x8 LINUX/depdom/NodeVector.o
 .group         0x0000000000000000        0x8 LINUX/depdom/NodeVector.o
 .group         0x0000000000000000        0x8 LINUX/depdom/NodeVector.o
 .text._ZN11xercesc_2_810XMLDeleterD2Ev
                0x0000000000000000        0xf LINUX/depdom/NodeVector.o
 .text._ZN11xercesc_2_810XMLDeleterD0Ev
                0x0000000000000000       0x13 LINUX/depdom/NodeVector.o
 .data.rel.ro._ZTVN11xercesc_2_810XMLDeleterE
                0x0000000000000000       0x20 LINUX/depdom/NodeVector.o
 .rodata._ZTSN11xercesc_2_810XMLDeleterE
                0x0000000000000000       0x1c LINUX/depdom/NodeVector.o
 .data.rel.ro._ZTIN11xercesc_2_810XMLDeleterE
                0x0000000000000000       0x10 LINUX/depdom/NodeVector.o
 .data.DW.ref.__gxx_personality_v0
                0x0000000000000000        0x8 LINUX/depdom/NodeVector.o
 .note.GNU-stack
                0x0000000000000000        0x0 LINUX/depdom/NodeVector.o
 .group         0x0000000000000000        0x8 LINUX/depdom/NotationImpl.o
 .group         0x0000000000000000        0x8 LINUX/depdom/NotationImpl.o
 .group         0x0000000000000000        0x8 LINUX/depdom/NotationImpl.o
 .group         0x0000000000000000        0x8 LINUX/depdom/NotationImpl.o
 .data.DW.ref.__gxx_personality_v0
                0x0000000000000000        0x8 LINUX/depdom/NotationImpl.o
 .note.GNU-stack
                0x0000000000000000        0x0 LINUX/depdom/NotationImpl.o
 .group         0x0000000000000000        0x8 LINUX/depdom/ParentNode.o
 _ZN11xercesc_2_810XMLDeleterD5Ev
                0x0000000000000000        0xc LINUX/depdom/ParentNode.o
 _ZN11xercesc_2_810ParentNodeD5Ev
                0x0000000000000000        0xc LINUX/depdom/ParentNode.o
 .group         0x0000000000000000        0x8 LINUX/depdom/ParentNode.o
 _ZN11xercesc_2_830ArrayIndexOutOfBoundsExceptionD5Ev
                0x0000000000000000        0xc LINUX/depdom/ParentNode.o
 .group         0x0000000000000000        0x8 LINUX/depdom/ParentNode.o
 .group         0x0000000000000000        0x8 LINUX/depdom/ParentNode.o
 .group         0x0000000000000000        0x8 LINUX/depdom/ParentNode.o
 .group         0x0000000000000000        0x8 LINUX/depdom/ParentNode.o
 .group         0x0000000000000000        0x8 LINUX/depdom/ParentNode.o
 .group         0x0000000000000000        0x8 LINUX/depdom/ParentNode.o
 .group         0x0000000000000000        0x8 LINUX/depdom/ParentNode.o
 .group         0x0000000000000000        0x8 LINUX/depdom/ParentNode.o
 .group         0x0000000000000000        0x8 LINUX/depdom/ParentNode.o
 .group         0x0000000000000000        0x8 LINUX/depdom/ParentNode.o
 .group         0x0000000000000000        0x8 LINUX/depdom/ParentNode.o
 .text._ZNK11xercesc_2_830ArrayIndexOutOfBoundsException7getTypeEv
                0x0000000000000000        0x8 LINUX/depdom/ParentNode.o
 .text._ZN11xercesc_2_810XMLDeleterD2Ev
                0x0000000000000000        0xf LINUX/depdom/ParentNode.o
 .text._ZN11xercesc_2_810XMLDeleterD0Ev
                0x0000000000000000       0x13 LINUX/depdom/ParentNode.o
 .text._ZN11xercesc_2_815BaseRefVectorOfINS_9RangeImplEE9elementAtEj
                0x0000000000000000       0xa6 LINUX/depdom/ParentNode.o
 .text._ZN11xercesc_2_830ArrayIndexOutOfBoundsExceptionD2Ev
                0x0000000000000000       0x13 LINUX/depdom/ParentNode.o
 .text._ZNK11xercesc_2_830ArrayIndexOutOfBoundsException9duplicateEv
                0x0000000000000000       0x6c LINUX/depdom/ParentNode.o
 .text._ZN11xercesc_2_830ArrayIndexOutOfBoundsExceptionD0Ev
                0x0000000000000000       0x20 LINUX/depdom/ParentNode.o
 .data.rel.ro._ZTVN11xercesc_2_810XMLDeleterE
                0x0000000000000000       0x20 LINUX/depdom/ParentNode.o
 .rodata._ZTSN11xercesc_2_810XMLDeleterE
                0x0000000000000000       0x1c LINUX/depdom/ParentNode.o
 .data.rel.ro._ZTIN11xercesc_2_810XMLDeleterE
                0x0000000000000000       0x10 LINUX/depdom/ParentNode.o
 .data.rel.ro._ZTIN11xercesc_2_830ArrayIndexOutOfBoundsExceptionE
                0x0000000000000000       0x18 LINUX/depdom/ParentNode.o
 .rodata._ZTSN11xercesc_2_830ArrayIndexOutOfBoundsExceptionE
                0x0000000000000000       0x30 LINUX/depdom/ParentNode.o
 .data.rel.ro._ZTVN11xercesc_2_830ArrayIndexOutOfBoundsExceptionE
                0x0000000000000000       0x30 LINUX/depdom/ParentNode.o
 .data.DW.ref.__gxx_personality_v0
                0x0000000000000000        0x8 LINUX/depdom/ParentNode.o
 .note.GNU-stack
                0x0000000000000000        0x0 LINUX/depdom/ParentNode.o
 _ZN11xercesc_2_810XMLDeleterD5Ev
                0x0000000000000000        0xc LINUX/depdom/ProcessingInstructionImpl.o
 .group         0x0000000000000000        0x8 LINUX/depdom/ProcessingInstructionImpl.o
 .group         0x0000000000000000        0x8 LINUX/depdom/ProcessingInstructionImpl.o
 .group         0x0000000000000000        0x8 LINUX/depdom/ProcessingInstructionImpl.o
 .group         0x0000000000000000        0x8 LINUX/depdom/ProcessingInstructionImpl.o
 .group         0x0000000000000000        0x8 LINUX/depdom/ProcessingInstructionImpl.o
 .group         0x0000000000000000        0x8 LINUX/depdom/ProcessingInstructionImpl.o
 .group         0x0000000000000000        0x8 LINUX/depdom/ProcessingInstructionImpl.o
 .text._ZN11xercesc_2_810XMLDeleterD2Ev
                0x0000000000000000        0xf LINUX/depdom/ProcessingInstructionImpl.o
 .text._ZN11xercesc_2_810XMLDeleterD0Ev
                0x0000000000000000       0x13 LINUX/depdom/ProcessingInstructionImpl.o
 .data.rel.ro._ZTVN11xercesc_2_810XMLDeleterE
                0x0000000000000000       0x20 LINUX/depdom/ProcessingInstructionImpl.o
 .rodata._ZTSN11xercesc_2_810XMLDeleterE
                0x0000000000000000       0x1c LINUX/depdom/ProcessingInstructionImpl.o
 .data.rel.ro._ZTIN11xercesc_2_810XMLDeleterE
                0x0000000000000000       0x10 LINUX/depdom/ProcessingInstructionImpl.o
 .data.DW.ref.__gxx_personality_v0
                0x0000000000000000        0x8 LINUX/depdom/ProcessingInstructionImpl.o
 .note.GNU-stack
                0x0000000000000000        0x0 LINUX/depdom/ProcessingInstructionImpl.o
 .group         0x0000000000000000        0x8 LINUX/depdom/RangeImpl.o
 _ZN11xercesc_2_810XMLDeleterD5Ev
                0x0000000000000000        0xc LINUX/depdom/RangeImpl.o
 .group         0x0000000000000000        0x8 LINUX/depdom/RangeImpl.o
 _ZN11xercesc_2_811RefVectorOfINS_8NodeImplEED5Ev
                0x0000000000000000        0xc LINUX/depdom/RangeImpl.o
 _ZN11xercesc_2_815BaseRefVectorOfINS_8NodeImplEED5Ev
                0x0000000000000000        0xc LINUX/depdom/RangeImpl.o
 .group         0x0000000000000000        0x8 LINUX/depdom/RangeImpl.o
 .group         0x0000000000000000        0x8 LINUX/depdom/RangeImpl.o
 .group         0x0000000000000000        0x8 LINUX/depdom/RangeImpl.o
 .group         0x0000000000000000        0x8 LINUX/depdom/RangeImpl.o
 _ZN11xercesc_2_830ArrayIndexOutOfBoundsExceptionD5Ev
                0x0000000000000000        0xc LINUX/depdom/RangeImpl.o
 .group         0x0000000000000000        0x8 LINUX/depdom/RangeImpl.o
 .group         0x0000000000000000        0x8 LINUX/depdom/RangeImpl.o
 .group         0x0000000000000000        0x8 LINUX/depdom/RangeImpl.o
 .group         0x0000000000000000        0x8 LINUX/depdom/RangeImpl.o
 .group         0x0000000000000000        0x8 LINUX/depdom/RangeImpl.o
 .group         0x0000000000000000        0x8 LINUX/depdom/RangeImpl.o
 .group         0x0000000000000000        0x8 LINUX/depdom/RangeImpl.o
 .group         0x0000000000000000        0x8 LINUX/depdom/RangeImpl.o
 .group         0x0000000000000000        0x8 LINUX/depdom/RangeImpl.o
 .group         0x0000000000000000        0x8 LINUX/depdom/RangeImpl.o
 .group         0x0000000000000000        0x8 LINUX/depdom/RangeImpl.o
 .group         0x0000000000000000        0x8 LINUX/depdom/RangeImpl.o
 .group         0x0000000000000000        0x8 LINUX/depdom/RangeImpl.o
 .group         0x0000000000000000        0x8 LINUX/depdom/RangeImpl.o
 .group         0x0000000000000000        0x8 LINUX/depdom/RangeImpl.o
 .group         0x0000000000000000        0x8 LINUX/depdom/RangeImpl.o
 .group         0x0000000000000000        0x8 LINUX/depdom/RangeImpl.o
 .group         0x0000000000000000        0x8 LINUX/depdom/RangeImpl.o
 .group         0x0000000000000000        0x8 LINUX/depdom/RangeImpl.o
 .group         0x0000000000000000        0x8 LINUX/depdom/RangeImpl.o
 .group         0x0000000000000000        0x8 LINUX/depdom/RangeImpl.o
 .text._ZNK11xercesc_2_830ArrayIndexOutOfBoundsException7getTypeEv
                0x0000000000000000        0x8 LINUX/depdom/RangeImpl.o
 .text._ZN11xercesc_2_810XMLDeleterD2Ev
                0x0000000000000000        0xf LINUX/depdom/RangeImpl.o
 .text._ZN11xercesc_2_810XMLDeleterD0Ev
                0x0000000000000000       0x13 LINUX/depdom/RangeImpl.o
 .text._ZN11xercesc_2_830ArrayIndexOutOfBoundsExceptionD2Ev
                0x0000000000000000       0x13 LINUX/depdom/RangeImpl.o
 .text._ZNK11xercesc_2_830ArrayIndexOutOfBoundsException9duplicateEv
                0x0000000000000000       0x6c LINUX/depdom/RangeImpl.o
 .text._ZN11xercesc_2_830ArrayIndexOutOfBoundsExceptionD0Ev
                0x0000000000000000       0x20 LINUX/depdom/RangeImpl.o
 .data.rel.ro._ZTVN11xercesc_2_810XMLDeleterE
                0x0000000000000000       0x20 LINUX/depdom/RangeImpl.o
 .rodata._ZTSN11xercesc_2_810XMLDeleterE
                0x0000000000000000       0x1c LINUX/depdom/RangeImpl.o
 .data.rel.ro._ZTIN11xercesc_2_810XMLDeleterE
                0x0000000000000000       0x10 LINUX/depdom/RangeImpl.o
 .data.rel.ro._ZTIN11xercesc_2_87XMemoryE
                0x0000000000000000       0x10 LINUX/depdom/RangeImpl.o
 .rodata._ZTSN11xercesc_2_87XMemoryE
                0x0000000000000000       0x18 LINUX/depdom/RangeImpl.o
 .data.rel.ro._ZTIN11xercesc_2_830ArrayIndexOutOfBoundsExceptionE
                0x0000000000000000       0x18 LINUX/depdom/RangeImpl.o
 .rodata._ZTSN11xercesc_2_830ArrayIndexOutOfBoundsExceptionE
                0x0000000000000000       0x30 LINUX/depdom/RangeImpl.o
 .data.rel.ro._ZTVN11xercesc_2_830ArrayIndexOutOfBoundsExceptionE
                0x0000000000000000       0x30 LINUX/depdom/RangeImpl.o
 .data.DW.ref.__gxx_personality_v0
                0x0000000000000000        0x8 LINUX/depdom/RangeImpl.o
 .note.GNU-stack
                0x0000000000000000        0x0 LINUX/depdom/RangeImpl.o
 .group         0x0000000000000000        0x8 LINUX/depdom/RefCountedImpl.o
 .group         0x0000000000000000        0x8 LINUX/depdom/RefCountedImpl.o
 .group         0x0000000000000000        0x8 LINUX/depdom/RefCountedImpl.o
 .group         0x0000000000000000        0x8 LINUX/depdom/RefCountedImpl.o
 .group         0x0000000000000000        0x8 LINUX/depdom/RefCountedImpl.o
 .group         0x0000000000000000        0x8 LINUX/depdom/RefCountedImpl.o
 .data.rel.ro._ZTIN11xercesc_2_87XMemoryE
                0x0000000000000000       0x10 LINUX/depdom/RefCountedImpl.o
 .rodata._ZTSN11xercesc_2_87XMemoryE
                0x0000000000000000       0x18 LINUX/depdom/RefCountedImpl.o
 .data.DW.ref.__gxx_personality_v0
                0x0000000000000000        0x8 LINUX/depdom/RefCountedImpl.o
 .note.GNU-stack
                0x0000000000000000        0x0 LINUX/depdom/RefCountedImpl.o
 .group         0x0000000000000000        0x8 LINUX/depdom/TextImpl.o
 _ZN11xercesc_2_810XMLDeleterD5Ev
                0x0000000000000000        0xc LINUX/depdom/TextImpl.o
 .group         0x0000000000000000        0x8 LINUX/depdom/TextImpl.o
 _ZN11xercesc_2_830ArrayIndexOutOfBoundsExceptionD5Ev
                0x0000000000000000        0xc LINUX/depdom/TextImpl.o
 .group         0x0000000000000000        0x8 LINUX/depdom/TextImpl.o
 .group         0x0000000000000000        0x8 LINUX/depdom/TextImpl.o
 .group         0x0000000000000000        0x8 LINUX/depdom/TextImpl.o
 .group         0x0000000000000000        0x8 LINUX/depdom/TextImpl.o
 .group         0x0000000000000000        0x8 LINUX/depdom/TextImpl.o
 .group         0x0000000000000000        0x8 LINUX/depdom/TextImpl.o
 .group         0x0000000000000000        0x8 LINUX/depdom/TextImpl.o
 .group         0x0000000000000000        0x8 LINUX/depdom/TextImpl.o
 .group         0x0000000000000000        0x8 LINUX/depdom/TextImpl.o
 .group         0x0000000000000000        0x8 LINUX/depdom/TextImpl.o
 .group         0x0000000000000000        0x8 LINUX/depdom/TextImpl.o
 .text._ZNK11xercesc_2_830ArrayIndexOutOfBoundsException7getTypeEv
                0x0000000000000000        0x8 LINUX/depdom/TextImpl.o
 .text._ZN11xercesc_2_810XMLDeleterD2Ev
                0x0000000000000000        0xf LINUX/depdom/TextImpl.o
 .text._ZN11xercesc_2_810XMLDeleterD0Ev
                0x0000000000000000       0x13 LINUX/depdom/TextImpl.o
 .text._ZN11xercesc_2_815BaseRefVectorOfINS_9RangeImplEE9elementAtEj
                0x0000000000000000       0xa6 LINUX/depdom/TextImpl.o
 .text._ZN11xercesc_2_830ArrayIndexOutOfBoundsExceptionD2Ev
                0x0000000000000000       0x13 LINUX/depdom/TextImpl.o
 .text._ZNK11xercesc_2_830ArrayIndexOutOfBoundsException9duplicateEv
                0x0000000000000000       0x6c LINUX/depdom/TextImpl.o
 .text._ZN11xercesc_2_830ArrayIndexOutOfBoundsExceptionD0Ev
                0x0000000000000000       0x20 LINUX/depdom/TextImpl.o
 .data.rel.ro._ZTVN11xercesc_2_810XMLDeleterE
                0x0000000000000000       0x20 LINUX/depdom/TextImpl.o
 .rodata._ZTSN11xercesc_2_810XMLDeleterE
                0x0000000000000000       0x1c LINUX/depdom/TextImpl.o
 .data.rel.ro._ZTIN11xercesc_2_810XMLDeleterE
                0x0000000000000000       0x10 LINUX/depdom/TextImpl.o
 .data.rel.ro._ZTIN11xercesc_2_830ArrayIndexOutOfBoundsExceptionE
                0x0000000000000000       0x18 LINUX/depdom/TextImpl.o
 .rodata._ZTSN11xercesc_2_830ArrayIndexOutOfBoundsExceptionE
                0x0000000000000000       0x30 LINUX/depdom/TextImpl.o
 .data.rel.ro._ZTVN11xercesc_2_830ArrayIndexOutOfBoundsExceptionE
                0x0000000000000000       0x30 LINUX/depdom/TextImpl.o
 .data.DW.ref.__gxx_personality_v0
                0x0000000000000000        0x8 LINUX/depdom/TextImpl.o
 .note.GNU-stack
                0x0000000000000000        0x0 LINUX/depdom/TextImpl.o
 _ZN11xercesc_2_810XMLDeleterD5Ev
                0x0000000000000000        0xc LINUX/depdom/TreeWalkerImpl.o
 .group         0x0000000000000000        0x8 LINUX/depdom/TreeWalkerImpl.o
 _ZN11xercesc_2_814TreeWalkerImplD5Ev
                0x0000000000000000        0xc LINUX/depdom/TreeWalkerImpl.o
 .group         0x0000000000000000        0x8 LINUX/depdom/TreeWalkerImpl.o
 _ZN11xercesc_2_830ArrayIndexOutOfBoundsExceptionD5Ev
                0x0000000000000000        0xc LINUX/depdom/TreeWalkerImpl.o
 .group         0x0000000000000000        0x8 LINUX/depdom/TreeWalkerImpl.o
 .group         0x0000000000000000        0x8 LINUX/depdom/TreeWalkerImpl.o
 .group         0x0000000000000000        0x8 LINUX/depdom/TreeWalkerImpl.o
 .group         0x0000000000000000        0x8 LINUX/depdom/TreeWalkerImpl.o
 .group         0x0000000000000000        0x8 LINUX/depdom/TreeWalkerImpl.o
 .group         0x0000000000000000        0x8 LINUX/depdom/TreeWalkerImpl.o
 .group         0x0000000000000000        0x8 LINUX/depdom/TreeWalkerImpl.o
 .group         0x0000000000000000        0x8 LINUX/depdom/TreeWalkerImpl.o
 .group         0x0000000000000000        0x8 LINUX/depdom/TreeWalkerImpl.o
 .group         0x0000000000000000        0x8 LINUX/depdom/TreeWalkerImpl.o
 .group         0x0000000000000000        0x8 LINUX/depdom/TreeWalkerImpl.o
 .text._ZN11xercesc_2_810XMLDeleterD2Ev
                0x0000000000000000        0xf LINUX/depdom/TreeWalkerImpl.o
 .text._ZNK11xercesc_2_830ArrayIndexOutOfBoundsException7getTypeEv
                0x0000000000000000        0x8 LINUX/depdom/TreeWalkerImpl.o
 .text._ZN11xercesc_2_810XMLDeleterD0Ev
                0x0000000000000000       0x13 LINUX/depdom/TreeWalkerImpl.o
 .text._ZN11xercesc_2_830ArrayIndexOutOfBoundsExceptionD2Ev
                0x0000000000000000       0x13 LINUX/depdom/TreeWalkerImpl.o
 .text._ZNK11xercesc_2_830ArrayIndexOutOfBoundsException9duplicateEv
                0x0000000000000000       0x6c LINUX/depdom/TreeWalkerImpl.o
 .text._ZN11xercesc_2_830ArrayIndexOutOfBoundsExceptionD0Ev
                0x0000000000000000       0x20 LINUX/depdom/TreeWalkerImpl.o
 .data.rel.ro._ZTVN11xercesc_2_810XMLDeleterE
                0x0000000000000000       0x20 LINUX/depdom/TreeWalkerImpl.o
 .rodata._ZTSN11xercesc_2_810XMLDeleterE
                0x0000000000000000       0x1c LINUX/depdom/TreeWalkerImpl.o
 .data.rel.ro._ZTIN11xercesc_2_810XMLDeleterE
                0x0000000000000000       0x10 LINUX/depdom/TreeWalkerImpl.o
 .data.rel.ro._ZTIN11xercesc_2_830ArrayIndexOutOfBoundsExceptionE
                0x0000000000000000       0x18 LINUX/depdom/TreeWalkerImpl.o
 .rodata._ZTSN11xercesc_2_830ArrayIndexOutOfBoundsExceptionE
                0x0000000000000000       0x30 LINUX/depdom/TreeWalkerImpl.o
 .data.rel.ro._ZTVN11xercesc_2_830ArrayIndexOutOfBoundsExceptionE
                0x0000000000000000       0x30 LINUX/depdom/TreeWalkerImpl.o
 .data.DW.ref.__gxx_personality_v0
                0x0000000000000000        0x8 LINUX/depdom/TreeWalkerImpl.o
 .note.GNU-stack
                0x0000000000000000        0x0 LINUX/depdom/TreeWalkerImpl.o
 _ZN11xercesc_2_810XMLDeleterD5Ev
                0x0000000000000000        0xc LINUX/depdom/XMLDeclImpl.o
 .group         0x0000000000000000        0x8 LINUX/depdom/XMLDeclImpl.o
 .group         0x0000000000000000        0x8 LINUX/depdom/XMLDeclImpl.o
 .group         0x0000000000000000        0x8 LINUX/depdom/XMLDeclImpl.o
 .group         0x0000000000000000        0x8 LINUX/depdom/XMLDeclImpl.o
 .group         0x0000000000000000        0x8 LINUX/depdom/XMLDeclImpl.o
 .group         0x0000000000000000        0x8 LINUX/depdom/XMLDeclImpl.o
 .group         0x0000000000000000        0x8 LINUX/depdom/XMLDeclImpl.o
 .text._ZN11xercesc_2_810XMLDeleterD2Ev
                0x0000000000000000        0xf LINUX/depdom/XMLDeclImpl.o
 .text._ZN11xercesc_2_810XMLDeleterD0Ev
                0x0000000000000000       0x13 LINUX/depdom/XMLDeclImpl.o
 .data.rel.ro._ZTVN11xercesc_2_810XMLDeleterE
                0x0000000000000000       0x20 LINUX/depdom/XMLDeclImpl.o
 .rodata._ZTSN11xercesc_2_810XMLDeleterE
                0x0000000000000000       0x1c LINUX/depdom/XMLDeclImpl.o
 .data.rel.ro._ZTIN11xercesc_2_810XMLDeleterE
                0x0000000000000000       0x10 LINUX/depdom/XMLDeclImpl.o
 .data.DW.ref.__gxx_personality_v0
                0x0000000000000000        0x8 LINUX/depdom/XMLDeclImpl.o
 .note.GNU-stack
                0x0000000000000000        0x0 LINUX/depdom/XMLDeclImpl.o
 .note.GNU-stack
                0x0000000000000000        0x0 /usr/lib/gcc/x86_64-redhat-linux/4.4.7/crtendS.o
 .note.GNU-stack
                0x0000000000000000        0x0 /usr/lib/gcc/x86_64-redhat-linux/4.4.7/../../../../lib64/crtn.o

Memory Configuration

Name             Origin             Length             Attributes
*default*        0x0000000000000000 0xffffffffffffffff

Linker script and memory map

LOAD /usr/lib/gcc/x86_64-redhat-linux/4.4.7/../../../../lib64/crti.o
LOAD /usr/lib/gcc/x86_64-redhat-linux/4.4.7/crtbeginS.o
LOAD LINUX/depdom/AttrImpl.o
LOAD LINUX/depdom/AttrMapImpl.o
LOAD LINUX/depdom/AttrNSImpl.o
LOAD LINUX/depdom/CDATASectionImpl.o
LOAD LINUX/depdom/CharacterDataImpl.o
LOAD LINUX/depdom/ChildNode.o
LOAD LINUX/depdom/CommentImpl.o
LOAD LINUX/depdom/DeepNodeListImpl.o
LOAD LINUX/depdom/DocumentFragmentImpl.o
LOAD LINUX/depdom/DocumentImpl.o
LOAD LINUX/depdom/DocumentTypeImpl.o
LOAD LINUX/depdom/DOM_Attr.o
LOAD LINUX/depdom/DOM_CDATASection.o
LOAD LINUX/depdom/DOM_CharacterData.o
LOAD LINUX/depdom/DOM_Comment.o
LOAD LINUX/depdom/DOM_DocumentFragment.o
LOAD LINUX/depdom/DOM_Document.o
LOAD LINUX/depdom/DOM_DocumentType.o
LOAD LINUX/depdom/DOM_DOMException.o
LOAD LINUX/depdom/DOM_DOMImplementation.o
LOAD LINUX/depdom/DOM_Element.o
LOAD LINUX/depdom/DOM_Entity.o
LOAD LINUX/depdom/DOM_EntityReference.o
LOAD LINUX/depdom/DomMemDebug.o
LOAD LINUX/depdom/DOM_NamedNodeMap.o
LOAD LINUX/depdom/DOM_NodeFilter.o
LOAD LINUX/depdom/DOM_NodeIterator.o
LOAD LINUX/depdom/DOM_NodeList.o
LOAD LINUX/depdom/DOM_Node.o
LOAD LINUX/depdom/DOM_Notation.o
LOAD LINUX/depdom/DOMParser.o
LOAD LINUX/depdom/DOM_ProcessingInstruction.o
LOAD LINUX/depdom/DOM_RangeException.o
LOAD LINUX/depdom/DOM_Range.o
LOAD LINUX/depdom/DOMString.o
LOAD LINUX/depdom/DOM_Text.o
LOAD LINUX/depdom/DOM_TreeWalker.o
LOAD LINUX/depdom/DOM_XMLDecl.o
LOAD LINUX/depdom/DStringPool.o
LOAD LINUX/depdom/ElementDefinitionImpl.o
LOAD LINUX/depdom/ElementImpl.o
LOAD LINUX/depdom/ElementNSImpl.o
LOAD LINUX/depdom/EntityImpl.o
LOAD LINUX/depdom/EntityReferenceImpl.o
LOAD LINUX/depdom/NamedNodeMapImpl.o
LOAD LINUX/depdom/NodeIDMap.o
LOAD LINUX/depdom/NodeImpl.o
LOAD LINUX/depdom/NodeIteratorImpl.o
LOAD LINUX/depdom/NodeListImpl.o
LOAD LINUX/depdom/NodeVector.o
LOAD LINUX/depdom/NotationImpl.o
LOAD LINUX/depdom/ParentNode.o
LOAD LINUX/depdom/ProcessingInstructionImpl.o
LOAD LINUX/depdom/RangeImpl.o
LOAD LINUX/depdom/RefCountedImpl.o
LOAD LINUX/depdom/TextImpl.o
LOAD LINUX/depdom/TreeWalkerImpl.o
LOAD LINUX/depdom/XMLDeclImpl.o
LOAD /usr/lib64/libpthread.so
START GROUP
LOAD /lib64/libpthread.so.0
LOAD /usr/lib64/libpthread_nonshared.a
END GROUP
LOAD /home/dev/isp2.2/SIPTelecom3.3/thirdParty/xerces-c-src_2_8_0/lib/libxerces-c.so
LOAD /usr/lib/gcc/x86_64-redhat-linux/4.4.7/libstdc++.so
LOAD /usr/lib64/libm.so
LOAD /usr/lib/gcc/x86_64-redhat-linux/4.4.7/libgcc_s.so
LOAD /usr/lib64/libc.so
START GROUP
LOAD /lib64/libc.so.6
LOAD /usr/lib64/libc_nonshared.a
LOAD /lib64/ld-linux-x86-64.so.2
END GROUP
LOAD /usr/lib/gcc/x86_64-redhat-linux/4.4.7/libgcc_s.so
LOAD /usr/lib/gcc/x86_64-redhat-linux/4.4.7/crtendS.o
LOAD /usr/lib/gcc/x86_64-redhat-linux/4.4.7/../../../../lib64/crtn.o
                0x0000000000000190                . = (0x0 + SIZEOF_HEADERS)

.note.gnu.build-id
                0x0000000000000190       0x24
 *(.note.gnu.build-id)
 .note.gnu.build-id
                0x0000000000000190       0x24 /usr/lib/gcc/x86_64-redhat-linux/4.4.7/../../../../lib64/crti.o

.hash
 *(.hash)

.gnu.hash       0x00000000000001b8     0x3104
 *(.gnu.hash)
 .gnu.hash      0x00000000000001b8     0x3104 /usr/lib/gcc/x86_64-redhat-linux/4.4.7/../../../../lib64/crti.o

.dynsym         0x00000000000032c0     0xa140
 *(.dynsym)
 .dynsym        0x00000000000032c0     0xa140 /usr/lib/gcc/x86_64-redhat-linux/4.4.7/../../../../lib64/crti.o

.dynstr         0x000000000000d400    0x14375
 *(.dynstr)
 .dynstr        0x000000000000d400    0x14375 /usr/lib/gcc/x86_64-redhat-linux/4.4.7/../../../../lib64/crti.o

.gnu.version    0x0000000000021776      0xd70
 *(.gnu.version)
 .gnu.version   0x0000000000021776      0xd70 /usr/lib/gcc/x86_64-redhat-linux/4.4.7/../../../../lib64/crti.o

.gnu.version_d  0x00000000000224e8        0x0 load address 0x00000000000224e6
 *(.gnu.version_d)
 .gnu.version_d
                0x0000000000000000        0x0 /usr/lib/gcc/x86_64-redhat-linux/4.4.7/../../../../lib64/crti.o

.gnu.version_r  0x00000000000224e8       0x70
 *(.gnu.version_r)
 .gnu.version_r
                0x00000000000224e8       0x70 /usr/lib/gcc/x86_64-redhat-linux/4.4.7/../../../../lib64/crti.o

.rela.dyn       0x0000000000022558     0xa920
 *(.rela.init)
 *(.rela.text .rela.text.* .rela.gnu.linkonce.t.*)
 .rela.text     0x0000000000000000        0x0 /usr/lib/gcc/x86_64-redhat-linux/4.4.7/../../../../lib64/crti.o
 *(.rela.fini)
 *(.rela.rodata .rela.rodata.* .rela.gnu.linkonce.r.*)
 *(.rela.data .rela.data.* .rela.gnu.linkonce.d.*)
 .rela.data.rel.ro
                0x0000000000022558       0x18 /usr/lib/gcc/x86_64-redhat-linux/4.4.7/../../../../lib64/crti.o
 .rela.data.rel.ro._ZTVN11xercesc_2_88AttrImplE
                0x0000000000022570      0x4f8 /usr/lib/gcc/x86_64-redhat-linux/4.4.7/../../../../lib64/crti.o
 .rela.data.rel.ro._ZTVN11xercesc_2_810XMLDeleterE
                0x0000000000022a68       0x48 /usr/lib/gcc/x86_64-redhat-linux/4.4.7/../../../../lib64/crti.o
 .rela.data.rel.ro._ZTIN11xercesc_2_810XMLDeleterE
                0x0000000000022ab0       0x30 /usr/lib/gcc/x86_64-redhat-linux/4.4.7/../../../../lib64/crti.o
 .rela.data.rel.ro._ZTIN11xercesc_2_88AttrImplE
                0x0000000000022ae0       0x48 /usr/lib/gcc/x86_64-redhat-linux/4.4.7/../../../../lib64/crti.o
 .rela.data.rel.ro._ZTIN11xercesc_2_830ArrayIndexOutOfBoundsExceptionE
                0x0000000000022b28       0x48 /usr/lib/gcc/x86_64-redhat-linux/4.4.7/../../../../lib64/crti.o
 .rela.data.rel.ro._ZTVN11xercesc_2_830ArrayIndexOutOfBoundsExceptionE
                0x0000000000022b70       0x78 /usr/lib/gcc/x86_64-redhat-linux/4.4.7/../../../../lib64/crti.o
 .rela.data.DW.ref.__gxx_personality_v0
                0x0000000000022be8       0x18 /usr/lib/gcc/x86_64-redhat-linux/4.4.7/../../../../lib64/crti.o
 .rela.data.rel.ro._ZTVN11xercesc_2_811AttrMapImplE
                0x0000000000022c00      0x1f8 /usr/lib/gcc/x86_64-redhat-linux/4.4.7/../../../../lib64/crti.o
 .rela.data.rel.ro._ZTIN11xercesc_2_811AttrMapImplE
                0x0000000000022df8       0x48 /usr/lib/gcc/x86_64-redhat-linux/4.4.7/../../../../lib64/crti.o
 .rela.data.rel.ro._ZTVN11xercesc_2_810AttrNSImplE
                0x0000000000022e40      0x4f8 /usr/lib/gcc/x86_64-redhat-linux/4.4.7/../../../../lib64/crti.o
 .rela.data.rel.ro._ZTIN11xercesc_2_810AttrNSImplE
                0x0000000000023338       0x48 /usr/lib/gcc/x86_64-redhat-linux/4.4.7/../../../../lib64/crti.o
 .rela.data.rel.ro._ZTVN11xercesc_2_816CDATASectionImplE
                0x0000000000023380      0x588 /usr/lib/gcc/x86_64-redhat-linux/4.4.7/../../../../lib64/crti.o
 .rela.data.rel.ro._ZTIN11xercesc_2_816CDATASectionImplE
                0x0000000000023908       0x48 /usr/lib/gcc/x86_64-redhat-linux/4.4.7/../../../../lib64/crti.o
 .rela.data.rel.ro._ZTVN11xercesc_2_817CharacterDataImplE
                0x0000000000023950      0x540 /usr/lib/gcc/x86_64-redhat-linux/4.4.7/../../../../lib64/crti.o
 .rela.data.rel.ro._ZTIN11xercesc_2_817CharacterDataImplE
                0x0000000000023e90       0x48 /usr/lib/gcc/x86_64-redhat-linux/4.4.7/../../../../lib64/crti.o
 .rela.data.rel.ro._ZTVN11xercesc_2_89ChildNodeE
                0x0000000000023ed8      0x480 /usr/lib/gcc/x86_64-redhat-linux/4.4.7/../../../../lib64/crti.o
 .rela.data.rel.ro._ZTIN11xercesc_2_89ChildNodeE
                0x0000000000024358       0x48 /usr/lib/gcc/x86_64-redhat-linux/4.4.7/../../../../lib64/crti.o
 .rela.data.rel.ro._ZTVN11xercesc_2_811CommentImplE
                0x00000000000243a0      0x540 /usr/lib/gcc/x86_64-redhat-linux/4.4.7/../../../../lib64/crti.o
 .rela.data.rel.ro._ZTIN11xercesc_2_811CommentImplE
                0x00000000000248e0       0x48 /usr/lib/gcc/x86_64-redhat-linux/4.4.7/../../../../lib64/crti.o
 .rela.data.rel.ro._ZTVN11xercesc_2_816DeepNodeListImplE
                0x0000000000024928       0xc0 /usr/lib/gcc/x86_64-redhat-linux/4.4.7/../../../../lib64/crti.o
 .rela.data.rel.ro._ZTIN11xercesc_2_816DeepNodeListImplE
                0x00000000000249e8       0x48 /usr/lib/gcc/x86_64-redhat-linux/4.4.7/../../../../lib64/crti.o
 .rela.data.rel.ro._ZTVN11xercesc_2_820DocumentFragmentImplE
                0x0000000000024a30      0x480 /usr/lib/gcc/x86_64-redhat-linux/4.4.7/../../../../lib64/crti.o
 .rela.data.rel.ro._ZTIN11xercesc_2_820DocumentFragmentImplE
                0x0000000000024eb0       0x48 /usr/lib/gcc/x86_64-redhat-linux/4.4.7/../../../../lib64/crti.o
 .rela.data.rel.ro._ZTVN11xercesc_2_812DocumentImplE
                0x0000000000024ef8      0x708 /usr/lib/gcc/x86_64-redhat-linux/4.4.7/../../../../lib64/crti.o
 .rela.data.rel.ro._ZTIN11xercesc_2_812DocumentImplE
                0x0000000000025600       0x48 /usr/lib/gcc/x86_64-redhat-linux/4.4.7/../../../../lib64/crti.o
 .rela.data.rel.ro._ZTIN11xercesc_2_824IllegalArgumentExceptionE
                0x0000000000025648       0x48 /usr/lib/gcc/x86_64-redhat-linux/4.4.7/../../../../lib64/crti.o
 .rela.data.rel.ro._ZTVN11xercesc_2_824IllegalArgumentExceptionE
                0x0000000000025690       0x78 /usr/lib/gcc/x86_64-redhat-linux/4.4.7/../../../../lib64/crti.o
 .rela.data.rel.ro._ZTIN11xercesc_2_822NoSuchElementExceptionE
                0x0000000000025708       0x48 /usr/lib/gcc/x86_64-redhat-linux/4.4.7/../../../../lib64/crti.o
 .rela.data.rel.ro._ZTVN11xercesc_2_822NoSuchElementExceptionE
                0x0000000000025750       0x78 /usr/lib/gcc/x86_64-redhat-linux/4.4.7/../../../../lib64/crti.o
 .rela.data.rel.ro._ZTVN11xercesc_2_811RefVectorOfINS_9RangeImplEEE
                0x00000000000257c8       0xc0 /usr/lib/gcc/x86_64-redhat-linux/4.4.7/../../../../lib64/crti.o
 .rela.data.rel.ro._ZTIN11xercesc_2_811RefVectorOfINS_9RangeImplEEE
                0x0000000000025888       0x48 /usr/lib/gcc/x86_64-redhat-linux/4.4.7/../../../../lib64/crti.o
 .rela.data.rel.ro._ZTIN11xercesc_2_815BaseRefVectorOfINS_9RangeImplEEE
                0x00000000000258d0       0x48 /usr/lib/gcc/x86_64-redhat-linux/4.4.7/../../../../lib64/crti.o
 .rela.data.rel.ro._ZTIN11xercesc_2_87XMemoryE
                0x0000000000025918       0x30 /usr/lib/gcc/x86_64-redhat-linux/4.4.7/../../../../lib64/crti.o
 .rela.data.rel.ro._ZTVN11xercesc_2_815BaseRefVectorOfINS_9RangeImplEEE
                0x0000000000025948       0xc0 /usr/lib/gcc/x86_64-redhat-linux/4.4.7/../../../../lib64/crti.o
 .rela.data.rel.ro._ZTVN11xercesc_2_811RefVectorOfINS_14TreeWalkerImplEEE
                0x0000000000025a08       0xc0 /usr/lib/gcc/x86_64-redhat-linux/4.4.7/../../../../lib64/crti.o
 .rela.data.rel.ro._ZTIN11xercesc_2_811RefVectorOfINS_14TreeWalkerImplEEE
                0x0000000000025ac8       0x48 /usr/lib/gcc/x86_64-redhat-linux/4.4.7/../../../../lib64/crti.o
 .rela.data.rel.ro._ZTIN11xercesc_2_815BaseRefVectorOfINS_14TreeWalkerImplEEE
                0x0000000000025b10       0x48 /usr/lib/gcc/x86_64-redhat-linux/4.4.7/../../../../lib64/crti.o
 .rela.data.rel.ro._ZTVN11xercesc_2_815BaseRefVectorOfINS_14TreeWalkerImplEEE
                0x0000000000025b58       0xc0 /usr/lib/gcc/x86_64-redhat-linux/4.4.7/../../../../lib64/crti.o
 .rela.data.rel.ro._ZTVN11xercesc_2_811RefVectorOfINS_16NodeIteratorImplEEE
                0x0000000000025c18       0xc0 /usr/lib/gcc/x86_64-redhat-linux/4.4.7/../../../../lib64/crti.o
 .rela.data.rel.ro._ZTIN11xercesc_2_811RefVectorOfINS_16NodeIteratorImplEEE
                0x0000000000025cd8       0x48 /usr/lib/gcc/x86_64-redhat-linux/4.4.7/../../../../lib64/crti.o
 .rela.data.rel.ro._ZTIN11xercesc_2_815BaseRefVectorOfINS_16NodeIteratorImplEEE
                0x0000000000025d20       0x48 /usr/lib/gcc/x86_64-redhat-linux/4.4.7/../../../../lib64/crti.o
 .rela.data.rel.ro._ZTVN11xercesc_2_815BaseRefVectorOfINS_16NodeIteratorImplEEE
                0x0000000000025d68       0xc0 /usr/lib/gcc/x86_64-redhat-linux/4.4.7/../../../../lib64/crti.o
 .rela.data.rel.ro._ZTVN11xercesc_2_816DocumentTypeImplE
                0x0000000000025e28      0x570 /usr/lib/gcc/x86_64-redhat-linux/4.4.7/../../../../lib64/crti.o
 .rela.data.rel.ro._ZTIN11xercesc_2_816DocumentTypeImplE
                0x0000000000026398       0x48 /usr/lib/gcc/x86_64-redhat-linux/4.4.7/../../../../lib64/crti.o
 .rela.data.rel.ro._ZTVN11xercesc_2_816DOM_DOMExceptionE
                0x00000000000263e0       0x48 /usr/lib/gcc/x86_64-redhat-linux/4.4.7/../../../../lib64/crti.o
 .rela.data.rel.ro._ZTIN11xercesc_2_816DOM_DOMExceptionE
                0x0000000000026428       0x30 /usr/lib/gcc/x86_64-redhat-linux/4.4.7/../../../../lib64/crti.o
 .rela.data.rel.ro._ZTVN11xercesc_2_814DOM_NodeFilterE
                0x0000000000026458       0x60 /usr/lib/gcc/x86_64-redhat-linux/4.4.7/../../../../lib64/crti.o
 .rela.data.rel.ro._ZTIN11xercesc_2_814DOM_NodeFilterE
                0x00000000000264b8       0x30 /usr/lib/gcc/x86_64-redhat-linux/4.4.7/../../../../lib64/crti.o
 .rela.data.rel.ro._ZTVN11xercesc_2_89DOMParserE
                0x00000000000264e8      0x6d8 /usr/lib/gcc/x86_64-redhat-linux/4.4.7/../../../../lib64/crti.o
 .rela.data.rel.ro._ZTVN11xercesc_2_815ContentSpecNodeE
                0x0000000000026bc0       0x90 /usr/lib/gcc/x86_64-redhat-linux/4.4.7/../../../../lib64/crti.o
 .rela.data.rel.ro._ZTVN11xercesc_2_813XMLAttDefListE
                0x0000000000026c50      0x198 /usr/lib/gcc/x86_64-redhat-linux/4.4.7/../../../../lib64/crti.o
 .rela.data.rel.ro._ZTVN11xercesc_2_813DTDEntityDeclE
                0x0000000000026de8       0xd8 /usr/lib/gcc/x86_64-redhat-linux/4.4.7/../../../../lib64/crti.o
 .rela.data.rel.ro._ZTVN11xercesc_2_810XMLRefInfoE
                0x0000000000026ec0       0x90 /usr/lib/gcc/x86_64-redhat-linux/4.4.7/../../../../lib64/crti.o
 .rela.data.rel.ro._ZTIN11xercesc_2_815ContentSpecNodeE
                0x0000000000026f50       0x60 /usr/lib/gcc/x86_64-redhat-linux/4.4.7/../../../../lib64/crti.o
 .rela.data.rel.ro._ZTIN11xercesc_2_89DOMParserE
                0x0000000000026fb0       0xa8 /usr/lib/gcc/x86_64-redhat-linux/4.4.7/../../../../lib64/crti.o
 .rela.data.rel.ro._ZTIN11xercesc_2_813XMLAttDefListE
                0x0000000000027058       0x60 /usr/lib/gcc/x86_64-redhat-linux/4.4.7/../../../../lib64/crti.o
 .rela.data.rel.ro._ZTIN11xercesc_2_813DTDEntityDeclE
                0x00000000000270b8       0x48 /usr/lib/gcc/x86_64-redhat-linux/4.4.7/../../../../lib64/crti.o
 .rela.data.rel.ro._ZTIN11xercesc_2_810XMLRefInfoE
                0x0000000000027100       0x60 /usr/lib/gcc/x86_64-redhat-linux/4.4.7/../../../../lib64/crti.o
 .rela.data.rel.ro._ZTIN11xercesc_2_813XSerializableE
                0x0000000000027160       0x30 /usr/lib/gcc/x86_64-redhat-linux/4.4.7/../../../../lib64/crti.o
 .rela.data.rel.ro._ZTIN11xercesc_2_818XMLDocumentHandlerE
                0x0000000000027190       0x30 /usr/lib/gcc/x86_64-redhat-linux/4.4.7/../../../../lib64/crti.o
 .rela.data.rel.ro._ZTIN11xercesc_2_816XMLErrorReporterE
                0x00000000000271c0       0x30 /usr/lib/gcc/x86_64-redhat-linux/4.4.7/../../../../lib64/crti.o
 .rela.data.rel.ro._ZTIN11xercesc_2_816XMLEntityHandlerE
                0x00000000000271f0       0x30 /usr/lib/gcc/x86_64-redhat-linux/4.4.7/../../../../lib64/crti.o
 .rela.data.rel.ro._ZTIN11xercesc_2_814DocTypeHandlerE
                0x0000000000027220       0x30 /usr/lib/gcc/x86_64-redhat-linux/4.4.7/../../../../lib64/crti.o
 .rela.data.rel.ro._ZTVN11xercesc_2_813XSerializableE
                0x0000000000027250       0x90 /usr/lib/gcc/x86_64-redhat-linux/4.4.7/../../../../lib64/crti.o
 .rela.data.rel.ro._ZTIN11xercesc_2_811IOExceptionE
                0x00000000000272e0       0x48 /usr/lib/gcc/x86_64-redhat-linux/4.4.7/../../../../lib64/crti.o
 .rela.data.rel.ro._ZTVN11xercesc_2_811IOExceptionE
                0x0000000000027328       0x78 /usr/lib/gcc/x86_64-redhat-linux/4.4.7/../../../../lib64/crti.o
 .rela.data.rel.ro._ZTIN11xercesc_2_819EmptyStackExceptionE
                0x00000000000273a0       0x48 /usr/lib/gcc/x86_64-redhat-linux/4.4.7/../../../../lib64/crti.o
 .rela.data.rel.ro._ZTVN11xercesc_2_819EmptyStackExceptionE
                0x00000000000273e8       0x78 /usr/lib/gcc/x86_64-redhat-linux/4.4.7/../../../../lib64/crti.o
 .rela.data.rel.ro._ZTVN11xercesc_2_814DocTypeHandlerE
                0x0000000000027460      0x1c8 /usr/lib/gcc/x86_64-redhat-linux/4.4.7/../../../../lib64/crti.o
 .rela.data.rel.ro._ZTVN11xercesc_2_816XMLEntityHandlerE
                0x0000000000027628       0xd8 /usr/lib/gcc/x86_64-redhat-linux/4.4.7/../../../../lib64/crti.o
 .rela.data.rel.ro._ZTVN11xercesc_2_816XMLErrorReporterE
                0x0000000000027700       0x78 /usr/lib/gcc/x86_64-redhat-linux/4.4.7/../../../../lib64/crti.o
 .rela.data.rel.ro._ZTVN11xercesc_2_818XMLDocumentHandlerE
                0x0000000000027778      0x180 /usr/lib/gcc/x86_64-redhat-linux/4.4.7/../../../../lib64/crti.o
 .rela.data.rel.ro._ZTIN11xercesc_2_820OutOfMemoryExceptionE
                0x00000000000278f8       0x48 /usr/lib/gcc/x86_64-redhat-linux/4.4.7/../../../../lib64/crti.o
 .rela.data.DW.ref._ZTIN11xercesc_2_820OutOfMemoryExceptionE
                0x0000000000027940       0x18 /usr/lib/gcc/x86_64-redhat-linux/4.4.7/../../../../lib64/crti.o
 .rela.data.rel.ro._ZTVN11xercesc_2_818DOM_RangeExceptionE
                0x0000000000027958       0x48 /usr/lib/gcc/x86_64-redhat-linux/4.4.7/../../../../lib64/crti.o
 .rela.data.rel.ro._ZTIN11xercesc_2_818DOM_RangeExceptionE
                0x00000000000279a0       0x48 /usr/lib/gcc/x86_64-redhat-linux/4.4.7/../../../../lib64/crti.o
 .rela.data.rel.ro._ZTVN11xercesc_2_821ElementDefinitionImplE
                0x00000000000279e8      0x480 /usr/lib/gcc/x86_64-redhat-linux/4.4.7/../../../../lib64/crti.o
 .rela.data.rel.ro._ZTIN11xercesc_2_821ElementDefinitionImplE
                0x0000000000027e68       0x48 /usr/lib/gcc/x86_64-redhat-linux/4.4.7/../../../../lib64/crti.o
 .rela.data.rel.ro._ZTVN11xercesc_2_811ElementImplE
                0x0000000000027eb0      0x780 /usr/lib/gcc/x86_64-redhat-linux/4.4.7/../../../../lib64/crti.o
 .rela.data.rel.ro._ZTIN11xercesc_2_811ElementImplE
                0x0000000000028630       0x48 /usr/lib/gcc/x86_64-redhat-linux/4.4.7/../../../../lib64/crti.o
 .rela.data.rel.ro._ZTVN11xercesc_2_813ElementNSImplE
                0x0000000000028678      0x780 /usr/lib/gcc/x86_64-redhat-linux/4.4.7/../../../../lib64/crti.o
 .rela.data.rel.ro._ZTIN11xercesc_2_813ElementNSImplE
                0x0000000000028df8       0x48 /usr/lib/gcc/x86_64-redhat-linux/4.4.7/../../../../lib64/crti.o
 .rela.data.rel.ro._ZTVN11xercesc_2_810EntityImplE
                0x0000000000028e40      0x510 /usr/lib/gcc/x86_64-redhat-linux/4.4.7/../../../../lib64/crti.o
 .rela.data.rel.ro._ZTIN11xercesc_2_810EntityImplE
                0x0000000000029350       0x48 /usr/lib/gcc/x86_64-redhat-linux/4.4.7/../../../../lib64/crti.o
 .rela.data.rel.ro._ZTVN11xercesc_2_819EntityReferenceImplE
                0x0000000000029398      0x480 /usr/lib/gcc/x86_64-redhat-linux/4.4.7/../../../../lib64/crti.o
 .rela.data.rel.ro._ZTIN11xercesc_2_819EntityReferenceImplE
                0x0000000000029818       0x48 /usr/lib/gcc/x86_64-redhat-linux/4.4.7/../../../../lib64/crti.o
 .rela.data.rel.ro._ZTVN11xercesc_2_816NamedNodeMapImplE
                0x0000000000029860      0x1b0 /usr/lib/gcc/x86_64-redhat-linux/4.4.7/../../../../lib64/crti.o
 .rela.data.rel.ro._ZTIN11xercesc_2_816NamedNodeMapImplE
                0x0000000000029a10       0x48 /usr/lib/gcc/x86_64-redhat-linux/4.4.7/../../../../lib64/crti.o
 .rela.data.rel.ro._ZTVN11xercesc_2_89NodeIDMapE
                0x0000000000029a58       0x48 /usr/lib/gcc/x86_64-redhat-linux/4.4.7/../../../../lib64/crti.o
 .rela.data.rel.ro._ZTIN11xercesc_2_89NodeIDMapE
                0x0000000000029aa0       0x48 /usr/lib/gcc/x86_64-redhat-linux/4.4.7/../../../../lib64/crti.o
 .rela.data.rel.ro._ZTIN11xercesc_2_816RuntimeExceptionE
                0x0000000000029ae8       0x48 /usr/lib/gcc/x86_64-redhat-linux/4.4.7/../../../../lib64/crti.o
 .rela.data.rel.ro._ZTVN11xercesc_2_816RuntimeExceptionE
                0x0000000000029b30       0x78 /usr/lib/gcc/x86_64-redhat-linux/4.4.7/../../../../lib64/crti.o
 .rela.data.rel.ro._ZTVN11xercesc_2_88NodeImplE
                0x0000000000029ba8      0x480 /usr/lib/gcc/x86_64-redhat-linux/4.4.7/../../../../lib64/crti.o
 .rela.data.rel.ro._ZTIN11xercesc_2_88NodeImplE
                0x000000000002a028       0x48 /usr/lib/gcc/x86_64-redhat-linux/4.4.7/../../../../lib64/crti.o
 .rela.data.rel.ro._ZTVN11xercesc_2_816NodeIteratorImplE
                0x000000000002a070       0x78 /usr/lib/gcc/x86_64-redhat-linux/4.4.7/../../../../lib64/crti.o
 .rela.data.rel.ro._ZTIN11xercesc_2_816NodeIteratorImplE
                0x000000000002a0e8       0x48 /usr/lib/gcc/x86_64-redhat-linux/4.4.7/../../../../lib64/crti.o
 .rela.data.rel.ro._ZTVN11xercesc_2_812NodeListImplE
                0x000000000002a130       0xa8 /usr/lib/gcc/x86_64-redhat-linux/4.4.7/../../../../lib64/crti.o
 .rela.data.rel.ro._ZTIN11xercesc_2_812NodeListImplE
                0x000000000002a1d8       0x48 /usr/lib/gcc/x86_64-redhat-linux/4.4.7/../../../../lib64/crti.o
 .rela.data.rel.ro._ZTVN11xercesc_2_812NotationImplE
                0x000000000002a220      0x4e0 /usr/lib/gcc/x86_64-redhat-linux/4.4.7/../../../../lib64/crti.o
 .rela.data.rel.ro._ZTIN11xercesc_2_812NotationImplE
                0x000000000002a700       0x48 /usr/lib/gcc/x86_64-redhat-linux/4.4.7/../../../../lib64/crti.o
 .rela.data.rel.ro._ZTVN11xercesc_2_810ParentNodeE
                0x000000000002a748      0x480 /usr/lib/gcc/x86_64-redhat-linux/4.4.7/../../../../lib64/crti.o
 .rela.data.rel.ro._ZTIN11xercesc_2_810ParentNodeE
                0x000000000002abc8       0x48 /usr/lib/gcc/x86_64-redhat-linux/4.4.7/../../../../lib64/crti.o
 .rela.data.rel.ro._ZTVN11xercesc_2_825ProcessingInstructionImplE
                0x000000000002ac10      0x4c8 /usr/lib/gcc/x86_64-redhat-linux/4.4.7/../../../../lib64/crti.o
 .rela.data.rel.ro._ZTIN11xercesc_2_825ProcessingInstructionImplE
                0x000000000002b0d8       0x48 /usr/lib/gcc/x86_64-redhat-linux/4.4.7/../../../../lib64/crti.o
 .rela.data.rel.ro._ZTVN11xercesc_2_89RangeImplE
                0x000000000002b120       0x78 /usr/lib/gcc/x86_64-redhat-linux/4.4.7/../../../../lib64/crti.o
 .rela.data.rel.ro._ZTIN11xercesc_2_89RangeImplE
                0x000000000002b198       0x48 /usr/lib/gcc/x86_64-redhat-linux/4.4.7/../../../../lib64/crti.o
 .rela.data.rel.ro._ZTVN11xercesc_2_811RefVectorOfINS_8NodeImplEEE
                0x000000000002b1e0       0xc0 /usr/lib/gcc/x86_64-redhat-linux/4.4.7/../../../../lib64/crti.o
 .rela.data.rel.ro._ZTIN11xercesc_2_811RefVectorOfINS_8NodeImplEEE
                0x000000000002b2a0       0x48 /usr/lib/gcc/x86_64-redhat-linux/4.4.7/../../../../lib64/crti.o
 .rela.data.rel.ro._ZTIN11xercesc_2_815BaseRefVectorOfINS_8NodeImplEEE
                0x000000000002b2e8       0x48 /usr/lib/gcc/x86_64-redhat-linux/4.4.7/../../../../lib64/crti.o
 .rela.data.rel.ro._ZTVN11xercesc_2_815BaseRefVectorOfINS_8NodeImplEEE
                0x000000000002b330       0xc0 /usr/lib/gcc/x86_64-redhat-linux/4.4.7/../../../../lib64/crti.o
 .rela.data.rel.ro._ZTVN11xercesc_2_814RefCountedImplE
                0x000000000002b3f0       0x78 /usr/lib/gcc/x86_64-redhat-linux/4.4.7/../../../../lib64/crti.o
 .rela.data.rel.ro._ZTIN11xercesc_2_814RefCountedImplE
                0x000000000002b468       0x48 /usr/lib/gcc/x86_64-redhat-linux/4.4.7/../../../../lib64/crti.o
 .rela.data.rel.ro._ZTVN11xercesc_2_88TextImplE
                0x000000000002b4b0      0x588 /usr/lib/gcc/x86_64-redhat-linux/4.4.7/../../../../lib64/crti.o
 .rela.data.rel.ro._ZTIN11xercesc_2_88TextImplE
                0x000000000002ba38       0x48 /usr/lib/gcc/x86_64-redhat-linux/4.4.7/../../../../lib64/crti.o
 .rela.data.rel.ro._ZTVN11xercesc_2_814TreeWalkerImplE
                0x000000000002ba80       0x78 /usr/lib/gcc/x86_64-redhat-linux/4.4.7/../../../../lib64/crti.o
 .rela.data.rel.ro._ZTIN11xercesc_2_814TreeWalkerImplE
                0x000000000002baf8       0x48 /usr/lib/gcc/x86_64-redhat-linux/4.4.7/../../../../lib64/crti.o
 .rela.data.rel.ro._ZTVN11xercesc_2_811XMLDeclImplE
                0x000000000002bb40      0x510 /usr/lib/gcc/x86_64-redhat-linux/4.4.7/../../../../lib64/crti.o
 .rela.data.rel.ro._ZTIN11xercesc_2_811XMLDeclImplE
                0x000000000002c050       0x48 /usr/lib/gcc/x86_64-redhat-linux/4.4.7/../../../../lib64/crti.o
 *(.rela.tdata .rela.tdata.* .rela.gnu.linkonce.td.*)
 *(.rela.tbss .rela.tbss.* .rela.gnu.linkonce.tb.*)
 *(.rela.ctors)
 .rela.ctors    0x000000000002c098      0x108 /usr/lib/gcc/x86_64-redhat-linux/4.4.7/../../../../lib64/crti.o
 *(.rela.dtors)
 *(.rela.got)
 .rela.got      0x000000000002c1a0      0xcd8 /usr/lib/gcc/x86_64-redhat-linux/4.4.7/../../../../lib64/crti.o
 *(.rela.sharable_data .rela.sharable_data.* .rela.gnu.linkonce.shrd.*)
 *(.rela.sharable_bss .rela.sharable_bss.* .rela.gnu.linkonce.shrb.*)
 *(.rela.bss .rela.bss.* .rela.gnu.linkonce.b.*)
 *(.rela.ldata .rela.ldata.* .rela.gnu.linkonce.l.*)
 *(.rela.lbss .rela.lbss.* .rela.gnu.linkonce.lb.*)
 *(.rela.lrodata .rela.lrodata.* .rela.gnu.linkonce.lr.*)
 *(.rela.ifunc)
 .rela.ifunc    0x0000000000000000        0x0 /usr/lib/gcc/x86_64-redhat-linux/4.4.7/../../../../lib64/crti.o
 .rela.eh_frame
                0x0000000000000000        0x0 /usr/lib/gcc/x86_64-redhat-linux/4.4.7/../../../../lib64/crti.o
 .rela.gcc_except_table
                0x0000000000000000        0x0 /usr/lib/gcc/x86_64-redhat-linux/4.4.7/../../../../lib64/crti.o

.rela.plt       0x000000000002ce78     0x2c40
 *(.rela.plt)
 .rela.plt      0x000000000002ce78     0x2c40 /usr/lib/gcc/x86_64-redhat-linux/4.4.7/../../../../lib64/crti.o
 *(.rela.iplt)

.init           0x000000000002fab8       0x18
 *(.init)
 .init          0x000000000002fab8        0x9 /usr/lib/gcc/x86_64-redhat-linux/4.4.7/../../../../lib64/crti.o
                0x000000000002fab8                _init
 .init          0x000000000002fac1        0x5 /usr/lib/gcc/x86_64-redhat-linux/4.4.7/crtbeginS.o
 .init          0x000000000002fac6        0x5 /usr/lib/gcc/x86_64-redhat-linux/4.4.7/crtendS.o
 .init          0x000000000002facb        0x5 /usr/lib/gcc/x86_64-redhat-linux/4.4.7/../../../../lib64/crtn.o

.plt            0x000000000002fad0     0x1d90
 *(.plt)
 .plt           0x000000000002fad0     0x1d90 /usr/lib/gcc/x86_64-redhat-linux/4.4.7/../../../../lib64/crti.o
 *(.iplt)

.text           0x0000000000031860    0x23658
 *(.text.unlikely .text.*_unlikely)
 *(.text .stub .text.* .gnu.linkonce.t.*)
 .text          0x0000000000031860       0x17 /usr/lib/gcc/x86_64-redhat-linux/4.4.7/../../../../lib64/crti.o
 *fill*         0x0000000000031877        0x9 90909090
 .text          0x0000000000031880       0xaa /usr/lib/gcc/x86_64-redhat-linux/4.4.7/crtbeginS.o
 *fill*         0x000000000003192a        0x6 90909090
 .text          0x0000000000031930     0x1655 LINUX/depdom/AttrImpl.o
                0x0000000000031930                _ZN11xercesc_2_88AttrImpl11getNodeTypeEv
                0x0000000000031940                _ZN11xercesc_2_88AttrImpl12getNodeValueEv
                0x0000000000031960                _ZN11xercesc_2_88AttrImpl12getSpecifiedEv
                0x0000000000031980                _ZN11xercesc_2_88AttrImpl10isAttrImplEv
                0x0000000000031990                _ZN11xercesc_2_88AttrImpl12setNodeValueERKNS_9DOMStringE
                0x00000000000319a0                _ZN11xercesc_2_88AttrImpl12setSpecifiedEb
                0x00000000000319e0                _ZN11xercesc_2_88AttrImpl15getOwnerElementEv
                0x0000000000031a00                _ZN11xercesc_2_88AttrImpl15setOwnerElementEPNS_11ElementImplE
                0x0000000000031a20                _ZN11xercesc_2_88AttrImpl13cloneChildrenERKNS_8NodeImplE
                0x0000000000031a80                _ZN11xercesc_2_88AttrImpl13getChildNodesEv
                0x0000000000031a90                _ZN11xercesc_2_88AttrImpl9lastChildEPNS_9ChildNodeE
                0x0000000000031aa0                _ZN11xercesc_2_88AttrImpl9getLengthEv
                0x0000000000031ae0                _ZN11xercesc_2_88AttrImpl13hasChildNodesEv
                0x0000000000031af0                _ZN11xercesc_2_88AttrImpl12replaceChildEPNS_8NodeImplES2_
                0x0000000000031b40                _ZN11xercesc_2_88AttrImpl9normalizeEv
                0x0000000000031c30                _ZN11xercesc_2_88AttrImpl11setReadOnlyEbb
                0x0000000000031cb0                _ZN11xercesc_2_88AttrImpl11removeChildEPNS_8NodeImplE
                0x0000000000031f20                _ZN11xercesc_2_88AttrImpl8toStringEv
                0x0000000000032010                _ZN11xercesc_2_88AttrImpl13makeChildNodeEv
                0x0000000000032170                _ZN11xercesc_2_88AttrImpl4itemEj
                0x00000000000321d0                _ZN11xercesc_2_88AttrImpl12insertBeforeEPNS_8NodeImplES2_
                0x00000000000326f0                _ZN11xercesc_2_88AttrImpl9lastChildEv
                0x0000000000032710                _ZN11xercesc_2_88AttrImpl12getLastChildEv
                0x0000000000032720                _ZN11xercesc_2_88AttrImpl13getFirstChildEv
                0x0000000000032730                _ZN11xercesc_2_88AttrImpl8setValueERKNS_9DOMStringE
                0x0000000000032980                _ZN11xercesc_2_88AttrImpl7getNameEv
                0x00000000000329a0                _ZN11xercesc_2_88AttrImpl11getNodeNameEv
                0x00000000000329c0                _ZN11xercesc_2_88AttrImpl8getValueEv
                0x0000000000032b40                _ZN11xercesc_2_88AttrImplD1Ev
                0x0000000000032b40                _ZN11xercesc_2_88AttrImplD2Ev
                0x0000000000032bd0                _ZN11xercesc_2_88AttrImplD0Ev
                0x0000000000032bf0                _ZN11xercesc_2_88AttrImplC1ERKS0_b
                0x0000000000032bf0                _ZN11xercesc_2_88AttrImplC2ERKS0_b
                0x0000000000032e40                _ZN11xercesc_2_88AttrImpl9cloneNodeEb
                0x0000000000032ec0                _ZN11xercesc_2_88AttrImplC1EPNS_12DocumentImplERKNS_9DOMStringE
                0x0000000000032ec0                _ZN11xercesc_2_88AttrImplC2EPNS_12DocumentImplERKNS_9DOMStringE
 *fill*         0x0000000000032f85        0xb 90909090
 .text._ZNK11xercesc_2_830ArrayIndexOutOfBoundsException7getTypeEv
                0x0000000000032f90        0x8 LINUX/depdom/AttrImpl.o
                0x0000000000032f90                _ZNK11xercesc_2_830ArrayIndexOutOfBoundsException7getTypeEv
 *fill*         0x0000000000032f98        0x8 90909090
 .text._ZN11xercesc_2_810XMLDeleterD2Ev
                0x0000000000032fa0        0xf LINUX/depdom/AttrImpl.o
                0x0000000000032fa0                _ZN11xercesc_2_810XMLDeleterD1Ev
                0x0000000000032fa0                _ZN11xercesc_2_810XMLDeleterD2Ev
 *fill*         0x0000000000032faf        0x1 90909090
 .text._ZN11xercesc_2_810XMLDeleterD0Ev
                0x0000000000032fb0       0x13 LINUX/depdom/AttrImpl.o
                0x0000000000032fb0                _ZN11xercesc_2_810XMLDeleterD0Ev
 *fill*         0x0000000000032fc3        0xd 90909090
 .text._ZN11xercesc_2_815BaseRefVectorOfINS_9RangeImplEE9elementAtEj
                0x0000000000032fd0       0xa6 LINUX/depdom/AttrImpl.o
                0x0000000000032fd0                _ZN11xercesc_2_815BaseRefVectorOfINS_9RangeImplEE9elementAtEj
 *fill*         0x0000000000033076        0xa 90909090
 .text._ZN11xercesc_2_830ArrayIndexOutOfBoundsExceptionD2Ev
                0x0000000000033080       0x13 LINUX/depdom/AttrImpl.o
                0x0000000000033080                _ZN11xercesc_2_830ArrayIndexOutOfBoundsExceptionD2Ev
                0x0000000000033080                _ZN11xercesc_2_830ArrayIndexOutOfBoundsExceptionD1Ev
 *fill*         0x0000000000033093        0xd 90909090
 .text._ZNK11xercesc_2_830ArrayIndexOutOfBoundsException9duplicateEv
                0x00000000000330a0       0x6c LINUX/depdom/AttrImpl.o
                0x00000000000330a0                _ZNK11xercesc_2_830ArrayIndexOutOfBoundsException9duplicateEv
 *fill*         0x000000000003310c        0x4 90909090
 .text._ZN11xercesc_2_830ArrayIndexOutOfBoundsExceptionD0Ev
                0x0000000000033110       0x20 LINUX/depdom/AttrImpl.o
                0x0000000000033110                _ZN11xercesc_2_830ArrayIndexOutOfBoundsExceptionD0Ev
 .text          0x0000000000033130      0x2b0 LINUX/depdom/AttrMapImpl.o
                0x0000000000033130                _ZN11xercesc_2_811AttrMapImpl17removeNamedItemNSERKNS_9DOMStringES3_
                0x00000000000331d0                _ZN11xercesc_2_811AttrMapImpl15removeNamedItemERKNS_9DOMStringE
                0x0000000000033260                _ZN11xercesc_2_811AttrMapImplD2Ev
                0x0000000000033260                _ZN11xercesc_2_811AttrMapImplD1Ev
                0x0000000000033280                _ZN11xercesc_2_811AttrMapImplD0Ev
                0x00000000000332a0                _ZN11xercesc_2_811AttrMapImplC1EPNS_8NodeImplEPNS_16NamedNodeMapImplE
                0x00000000000332a0                _ZN11xercesc_2_811AttrMapImplC2EPNS_8NodeImplEPNS_16NamedNodeMapImplE
                0x0000000000033330                _ZN11xercesc_2_811AttrMapImplC2EPNS_8NodeImplE
                0x0000000000033330                _ZN11xercesc_2_811AttrMapImplC1EPNS_8NodeImplE
                0x0000000000033350                _ZN11xercesc_2_811AttrMapImpl12cloneAttrMapEPNS_8NodeImplE
 .text._ZN11xercesc_2_811AttrMapImpl11hasDefaultsEv
                0x00000000000333e0        0x5 LINUX/depdom/AttrMapImpl.o
                0x00000000000333e0                _ZN11xercesc_2_811AttrMapImpl11hasDefaultsEv
 *fill*         0x00000000000333e5        0xb 90909090
 .text._ZN11xercesc_2_811AttrMapImpl11hasDefaultsEb
                0x00000000000333f0        0x5 LINUX/depdom/AttrMapImpl.o
                0x00000000000333f0                _ZN11xercesc_2_811AttrMapImpl11hasDefaultsEb
 *fill*         0x00000000000333f5        0xb 90909090
 .text          0x0000000000033400      0xc15 LINUX/depdom/AttrNSImpl.o
                0x0000000000033400                _ZN11xercesc_2_810AttrNSImpl9setPrefixERKNS_9DOMStringE
                0x0000000000033950                _ZN11xercesc_2_810AttrNSImpl12getLocalNameEv
                0x0000000000033970                _ZN11xercesc_2_810AttrNSImpl15getNamespaceURIEv
                0x0000000000033990                _ZN11xercesc_2_810AttrNSImpl9getPrefixEv
                0x00000000000339f0                _ZN11xercesc_2_810AttrNSImplC1ERKS0_b
                0x00000000000339f0                _ZN11xercesc_2_810AttrNSImplC2ERKS0_b
                0x0000000000033af0                _ZN11xercesc_2_810AttrNSImpl9cloneNodeEb
                0x0000000000033b70                _ZN11xercesc_2_810AttrNSImplC2EPNS_12DocumentImplERKNS_9DOMStringE
                0x0000000000033b70                _ZN11xercesc_2_810AttrNSImplC1EPNS_12DocumentImplERKNS_9DOMStringE
                0x0000000000033c20                _ZN11xercesc_2_810AttrNSImplC1EPNS_12DocumentImplERKNS_9DOMStringES5_
                0x0000000000033c20                _ZN11xercesc_2_810AttrNSImplC2EPNS_12DocumentImplERKNS_9DOMStringES5_
 *fill*         0x0000000000034015        0xb 90909090
 .text._ZN11xercesc_2_810AttrNSImplD2Ev
                0x0000000000034020       0x68 LINUX/depdom/AttrNSImpl.o
                0x0000000000034020                _ZN11xercesc_2_810AttrNSImplD2Ev
                0x0000000000034020                _ZN11xercesc_2_810AttrNSImplD1Ev
 *fill*         0x0000000000034088        0x8 90909090
 .text._ZN11xercesc_2_810AttrNSImplD0Ev
                0x0000000000034090       0x70 LINUX/depdom/AttrNSImpl.o
                0x0000000000034090                _ZN11xercesc_2_810AttrNSImplD0Ev
 .text          0x0000000000034100      0x199 LINUX/depdom/CDATASectionImpl.o
                0x0000000000034100                _ZN11xercesc_2_816CDATASectionImpl11getNodeTypeEv
                0x0000000000034110                _ZN11xercesc_2_816CDATASectionImpl18isCDATASectionImplEv
                0x0000000000034130                _ZN11xercesc_2_816CDATASectionImpl22reinitCDATASectionImplEv
                0x0000000000034160                _ZN11xercesc_2_816CDATASectionImpl11getNodeNameEv
                0x00000000000341a0                _ZN11xercesc_2_816CDATASectionImplD2Ev
                0x00000000000341a0                _ZN11xercesc_2_816CDATASectionImplD1Ev
                0x00000000000341c0                _ZN11xercesc_2_816CDATASectionImplD0Ev
                0x00000000000341e0                _ZN11xercesc_2_816CDATASectionImplC1ERKS0_b
                0x00000000000341e0                _ZN11xercesc_2_816CDATASectionImplC2ERKS0_b
                0x0000000000034200                _ZN11xercesc_2_816CDATASectionImpl9cloneNodeEb
                0x0000000000034280                _ZN11xercesc_2_816CDATASectionImplC1EPNS_12DocumentImplERKNS_9DOMStringE
                0x0000000000034280                _ZN11xercesc_2_816CDATASectionImplC2EPNS_12DocumentImplERKNS_9DOMStringE
 *fill*         0x0000000000034299        0x7 90909090
 .text          0x00000000000342a0      0x832 LINUX/depdom/CharacterDataImpl.o
                0x00000000000342a0                _ZN11xercesc_2_817CharacterDataImpl7getDataEv
                0x00000000000342b0                _ZN11xercesc_2_817CharacterDataImpl13substringDataEjj
                0x00000000000342d0                _ZN11xercesc_2_817CharacterDataImpl11replaceDataEjjRKNS_9DOMStringE
                0x00000000000343b0                _ZN11xercesc_2_817CharacterDataImpl7setDataERKNS_9DOMStringE
                0x0000000000034490                _ZN11xercesc_2_817CharacterDataImpl10insertDataEjRKNS_9DOMStringE
                0x0000000000034560                _ZN11xercesc_2_817CharacterDataImpl17getCharDataLengthEv
                0x0000000000034570                _ZN11xercesc_2_817CharacterDataImpl10deleteDataEjj
                0x00000000000346d0                _ZN11xercesc_2_817CharacterDataImpl10appendDataERKNS_9DOMStringE
                0x00000000000347a0                _ZN11xercesc_2_817CharacterDataImpl12setNodeValueERKNS_9DOMStringE
                0x00000000000348f0                _ZN11xercesc_2_817CharacterDataImpl12getNodeValueEv
                0x0000000000034910                _ZN11xercesc_2_817CharacterDataImplD2Ev
                0x0000000000034910                _ZN11xercesc_2_817CharacterDataImplD1Ev
                0x0000000000034960                _ZN11xercesc_2_817CharacterDataImplD0Ev
                0x0000000000034980                _ZN11xercesc_2_817CharacterDataImplC1ERKS0_b
                0x0000000000034980                _ZN11xercesc_2_817CharacterDataImplC2ERKS0_b
                0x0000000000034a30                _ZN11xercesc_2_817CharacterDataImplC1EPNS_12DocumentImplERKNS_9DOMStringE
                0x0000000000034a30                _ZN11xercesc_2_817CharacterDataImplC2EPNS_12DocumentImplERKNS_9DOMStringE
 *fill*         0x0000000000034ad2        0xe 90909090
 .text          0x0000000000034ae0       0xf9 LINUX/depdom/ChildNode.o
                0x0000000000034ae0                _ZN11xercesc_2_89ChildNode14getNextSiblingEv
                0x0000000000034af0                _ZN11xercesc_2_89ChildNode13getParentNodeEv
                0x0000000000034b10                _ZN11xercesc_2_89ChildNode18getPreviousSiblingEv
                0x0000000000034b30                _ZN11xercesc_2_89ChildNodeD2Ev
                0x0000000000034b30                _ZN11xercesc_2_89ChildNodeD1Ev
                0x0000000000034b50                _ZN11xercesc_2_89ChildNodeD0Ev
                0x0000000000034b70                _ZN11xercesc_2_89ChildNodeC1ERKS0_
                0x0000000000034b70                _ZN11xercesc_2_89ChildNodeC2ERKS0_
                0x0000000000034bb0                _ZN11xercesc_2_89ChildNodeC2EPNS_12DocumentImplE
                0x0000000000034bb0                _ZN11xercesc_2_89ChildNodeC1EPNS_12DocumentImplE
 *fill*         0x0000000000034bd9        0x7 90909090
 .text          0x0000000000034be0      0x189 LINUX/depdom/CommentImpl.o
                0x0000000000034be0                _ZN11xercesc_2_811CommentImpl11getNodeTypeEv
                0x0000000000034c00                _ZN11xercesc_2_811CommentImpl17reinitCommentImplEv
                0x0000000000034c30                _ZN11xercesc_2_811CommentImpl11getNodeNameEv
                0x0000000000034c70                _ZN11xercesc_2_811CommentImplD1Ev
                0x0000000000034c70                _ZN11xercesc_2_811CommentImplD2Ev
                0x0000000000034c90                _ZN11xercesc_2_811CommentImplD0Ev
                0x0000000000034cb0                _ZN11xercesc_2_811CommentImplC2ERKS0_b
                0x0000000000034cb0                _ZN11xercesc_2_811CommentImplC1ERKS0_b
                0x0000000000034cd0                _ZN11xercesc_2_811CommentImpl9cloneNodeEb
                0x0000000000034d50                _ZN11xercesc_2_811CommentImplC2EPNS_12DocumentImplERKNS_9DOMStringE
                0x0000000000034d50                _ZN11xercesc_2_811CommentImplC1EPNS_12DocumentImplERKNS_9DOMStringE
 *fill*         0x0000000000034d69        0x7 90909090
 .text          0x0000000000034d70      0x722 LINUX/depdom/DeepNodeListImpl.o
                0x0000000000034d70                _ZN11xercesc_2_816DeepNodeListImpl12unreferencedEv
                0x0000000000034da0                _ZN11xercesc_2_816DeepNodeListImpl22reinitDeepNodeListImplEv
                0x0000000000034dd0                _ZN11xercesc_2_816DeepNodeListImpl24nextMatchingElementAfterEPNS_8NodeImplE
                0x0000000000035050                _ZN11xercesc_2_816DeepNodeListImpl9getLengthEv
                0x0000000000035070                _ZN11xercesc_2_816DeepNodeListImpl4itemEj
                0x0000000000035130                _ZN11xercesc_2_816DeepNodeListImplD1Ev
                0x0000000000035130                _ZN11xercesc_2_816DeepNodeListImplD2Ev
                0x00000000000351b0                _ZN11xercesc_2_816DeepNodeListImplD0Ev
                0x00000000000351d0                _ZN11xercesc_2_816DeepNodeListImplC2EPNS_8NodeImplERKNS_9DOMStringES5_
                0x00000000000351d0                _ZN11xercesc_2_816DeepNodeListImplC1EPNS_8NodeImplERKNS_9DOMStringES5_
                0x0000000000035350                _ZN11xercesc_2_816DeepNodeListImplC2EPNS_8NodeImplERKNS_9DOMStringE
                0x0000000000035350                _ZN11xercesc_2_816DeepNodeListImplC1EPNS_8NodeImplERKNS_9DOMStringE
 *fill*         0x0000000000035492        0xe 90909090
 .text          0x00000000000354a0      0x1f9 LINUX/depdom/DocumentFragmentImpl.o
                0x00000000000354a0                _ZN11xercesc_2_820DocumentFragmentImpl11getNodeTypeEv
                0x00000000000354b0                _ZN11xercesc_2_820DocumentFragmentImpl22isDocumentFragmentImplEv
                0x00000000000354d0                _ZN11xercesc_2_820DocumentFragmentImpl26reinitDocumentFragmentImplEv
                0x0000000000035500                _ZN11xercesc_2_820DocumentFragmentImpl11getNodeNameEv
                0x0000000000035540                _ZN11xercesc_2_820DocumentFragmentImplD1Ev
                0x0000000000035540                _ZN11xercesc_2_820DocumentFragmentImplD2Ev
                0x0000000000035560                _ZN11xercesc_2_820DocumentFragmentImplD0Ev
                0x0000000000035580                _ZN11xercesc_2_820DocumentFragmentImplC1ERKS0_b
                0x0000000000035580                _ZN11xercesc_2_820DocumentFragmentImplC2ERKS0_b
                0x0000000000035600                _ZN11xercesc_2_820DocumentFragmentImpl9cloneNodeEb
                0x0000000000035680                _ZN11xercesc_2_820DocumentFragmentImplC1EPNS_12DocumentImplE
                0x0000000000035680                _ZN11xercesc_2_820DocumentFragmentImplC2EPNS_12DocumentImplE
 *fill*         0x0000000000035699        0x7 90909090
 .text          0x00000000000356a0     0x2c4b LINUX/depdom/DocumentImpl.o
                0x00000000000356a0                _ZN11xercesc_2_812DocumentImpl11getNodeTypeEv
                0x00000000000356b0                _ZN11xercesc_2_812DocumentImpl16getOwnerDocumentEv
                0x00000000000356c0                _ZN11xercesc_2_812DocumentImpl14isDocumentImplEv
                0x00000000000356d0                _ZN11xercesc_2_812DocumentImpl10getDoctypeEv
                0x00000000000356e0                _ZN11xercesc_2_812DocumentImpl18getDocumentElementEv
                0x00000000000356f0                _ZN11xercesc_2_812DocumentImpl10referencedEv
                0x0000000000035700                _ZN11xercesc_2_812DocumentImpl9getRangesEv
                0x0000000000035710                _ZN11xercesc_2_812DocumentImpl7isKidOKEPNS_8NodeImplES2_
                0x00000000000357d0                _ZN11xercesc_2_812DocumentImpl11getUserDataEv
                0x0000000000035800                _ZN11xercesc_2_812DocumentImpl11setUserDataEPv
                0x0000000000035870                _ZN11xercesc_2_812DocumentImpl7changedEv
                0x0000000000035880                _ZN11xercesc_2_812DocumentImpl7changesEv
                0x0000000000035890                _ZN11xercesc_2_812DocumentImpl11getUserDataEPNS_8NodeImplE
                0x00000000000358e0                _ZN11xercesc_2_812DocumentImpl18reinitDocumentImplEv
                0x0000000000035910                _ZN11xercesc_2_812DocumentImpl11removeRangeEPNS_9RangeImplE
                0x0000000000035970                _ZN11xercesc_2_812DocumentImpl11setUserDataEPNS_8NodeImplEPv
                0x0000000000035b70                _ZN11xercesc_2_812DocumentImpl11createRangeEv
                0x0000000000035d40                _ZN11xercesc_2_812DocumentImpl13createXMLDeclERKNS_9DOMStringES3_S3_
                0x0000000000035dd0                _ZN11xercesc_2_812DocumentImpl20indexofQualifiedNameERKNS_9DOMStringE
                0x0000000000035e60                _ZN11xercesc_2_812DocumentImpl14getElementByIdERKNS_9DOMStringE
                0x0000000000035e90                _ZN11xercesc_2_812DocumentImpl22getElementsByTagNameNSERKNS_9DOMStringES3_
                0x0000000000035f10                _ZN11xercesc_2_812DocumentImpl15setDocumentTypeEPNS_16DocumentTypeImplE
                0x0000000000036030                _ZN11xercesc_2_812DocumentImpl10importNodeEPNS_8NodeImplEb
                0x0000000000036ab0                _ZN11xercesc_2_812DocumentImpl12unreferencedEv
                0x0000000000036ac0                _ZN11xercesc_2_812DocumentImpl11removeChildEPNS_8NodeImplE
                0x0000000000036b20                _ZN11xercesc_2_812DocumentImpl9isXMLNameERKNS_9DOMStringE
                0x0000000000036b60                _ZN11xercesc_2_812DocumentImpl17createAttributeNSERKNS_9DOMStringES3_
                0x0000000000036c60                _ZN11xercesc_2_812DocumentImpl15createElementNSERKNS_9DOMStringES3_
                0x0000000000036d60                _ZN11xercesc_2_812DocumentImpl12insertBeforeEPNS_8NodeImplES2_
                0x0000000000036eb0                _ZN11xercesc_2_812DocumentImpl20getElementsByTagNameERKNS_9DOMStringE
                0x0000000000036f20                _ZN11xercesc_2_812DocumentImpl16createTreeWalkerENS_8DOM_NodeEmPNS_14DOM_NodeFilterEbPNS_13MemoryManagerE
                0x0000000000037150                _ZN11xercesc_2_812DocumentImpl18createNodeIteratorENS_8DOM_NodeEmPNS_14DOM_NodeFilterEbPNS_13MemoryManagerE
                0x0000000000037380                _ZN11xercesc_2_812DocumentImpl14createTextNodeERKNS_9DOMStringE
                0x00000000000373f0                _ZN11xercesc_2_812DocumentImpl27createProcessingInstructionERKNS_9DOMStringES3_
                0x00000000000374f0                _ZN11xercesc_2_812DocumentImpl14createNotationERKNS_9DOMStringE
                0x00000000000375e0                _ZN11xercesc_2_812DocumentImpl21createEntityReferenceERKNS_9DOMStringE
                0x00000000000376d0                _ZN11xercesc_2_812DocumentImpl12createEntityERKNS_9DOMStringE
                0x00000000000377c0                _ZN11xercesc_2_812DocumentImpl13createElementEPKt
                0x0000000000037860                _ZN11xercesc_2_812DocumentImpl13createElementERKNS_9DOMStringE
                0x0000000000037990                _ZN11xercesc_2_812DocumentImpl18createDocumentTypeERKNS_9DOMStringES3_S3_
                0x0000000000037aa0                _ZN11xercesc_2_812DocumentImpl18createDocumentTypeERKNS_9DOMStringE
                0x0000000000037b90                _ZN11xercesc_2_812DocumentImpl22createDocumentFragmentEv
                0x0000000000037c00                _ZN11xercesc_2_812DocumentImpl13createCommentERKNS_9DOMStringE
                0x0000000000037c70                _ZN11xercesc_2_812DocumentImpl18createCDATASectionERKNS_9DOMStringE
                0x0000000000037ce0                _ZN11xercesc_2_812DocumentImpl15createAttributeERKNS_9DOMStringE
                0x0000000000037dd0                _ZN11xercesc_2_812DocumentImpl11getNodeNameEv
                0x0000000000037e10                _ZN11xercesc_2_812DocumentImplD2Ev
                0x0000000000037e10                _ZN11xercesc_2_812DocumentImplD1Ev
                0x0000000000037fc0                _ZN11xercesc_2_812DocumentImplD0Ev
                0x0000000000037fe0                _ZN11xercesc_2_812DocumentImplC1ERKNS_9DOMStringES3_PNS_16DocumentTypeImplEPNS_13MemoryManagerE
                0x0000000000037fe0                _ZN11xercesc_2_812DocumentImplC2ERKNS_9DOMStringES3_PNS_16DocumentTypeImplEPNS_13MemoryManagerE
                0x0000000000038130                _ZN11xercesc_2_812DocumentImplC2EPNS_13MemoryManagerE
                0x0000000000038130                _ZN11xercesc_2_812DocumentImplC1EPNS_13MemoryManagerE
                0x0000000000038240                _ZN11xercesc_2_812DocumentImpl9cloneNodeEb
 *fill*         0x00000000000382eb        0x5 90909090
 .text._ZNK11xercesc_2_824IllegalArgumentException7getTypeEv
                0x00000000000382f0        0x8 LINUX/depdom/DocumentImpl.o
                0x00000000000382f0                _ZNK11xercesc_2_824IllegalArgumentException7getTypeEv
 *fill*         0x00000000000382f8        0x8 90909090
 .text._ZNK11xercesc_2_822NoSuchElementException7getTypeEv
                0x0000000000038300        0x8 LINUX/depdom/DocumentImpl.o
                0x0000000000038300                _ZNK11xercesc_2_822NoSuchElementException7getTypeEv
 *fill*         0x0000000000038308        0x8 90909090
 .text._ZN11xercesc_2_811RefVectorOfINS_16NodeIteratorImplEED2Ev
                0x0000000000038310       0x8d LINUX/depdom/DocumentImpl.o
                0x0000000000038310                _ZN11xercesc_2_811RefVectorOfINS_16NodeIteratorImplEED2Ev
                0x0000000000038310                _ZN11xercesc_2_811RefVectorOfINS_16NodeIteratorImplEED1Ev
 *fill*         0x000000000003839d        0x3 90909090
 .text._ZN11xercesc_2_811RefVectorOfINS_14TreeWalkerImplEED2Ev
                0x00000000000383a0       0x8d LINUX/depdom/DocumentImpl.o
                0x00000000000383a0                _ZN11xercesc_2_811RefVectorOfINS_14TreeWalkerImplEED2Ev
                0x00000000000383a0                _ZN11xercesc_2_811RefVectorOfINS_14TreeWalkerImplEED1Ev
 *fill*         0x000000000003842d        0x3 90909090
 .text._ZN11xercesc_2_811RefVectorOfINS_9RangeImplEED2Ev
                0x0000000000038430       0x8d LINUX/depdom/DocumentImpl.o
                0x0000000000038430                _ZN11xercesc_2_811RefVectorOfINS_9RangeImplEED1Ev
                0x0000000000038430                _ZN11xercesc_2_811RefVectorOfINS_9RangeImplEED2Ev
 *fill*         0x00000000000384bd        0x3 90909090
 .text._ZN11xercesc_2_815BaseRefVectorOfINS_16NodeIteratorImplEED2Ev
                0x00000000000384c0        0xf LINUX/depdom/DocumentImpl.o
                0x00000000000384c0                _ZN11xercesc_2_815BaseRefVectorOfINS_16NodeIteratorImplEED2Ev
                0x00000000000384c0                _ZN11xercesc_2_815BaseRefVectorOfINS_16NodeIteratorImplEED1Ev
 *fill*         0x00000000000384cf        0x1 90909090
 .text._ZN11xercesc_2_815BaseRefVectorOfINS_14TreeWalkerImplEED2Ev
                0x00000000000384d0        0xf LINUX/depdom/DocumentImpl.o
                0x00000000000384d0                _ZN11xercesc_2_815BaseRefVectorOfINS_14TreeWalkerImplEED1Ev
                0x00000000000384d0                _ZN11xercesc_2_815BaseRefVectorOfINS_14TreeWalkerImplEED2Ev
 *fill*         0x00000000000384df        0x1 90909090
 .text._ZN11xercesc_2_815BaseRefVectorOfINS_9RangeImplEED2Ev
                0x00000000000384e0        0xf LINUX/depdom/DocumentImpl.o
                0x00000000000384e0                _ZN11xercesc_2_815BaseRefVectorOfINS_9RangeImplEED1Ev
                0x00000000000384e0                _ZN11xercesc_2_815BaseRefVectorOfINS_9RangeImplEED2Ev
 *fill*         0x00000000000384ef        0x1 90909090
 .text._ZN11xercesc_2_814RefHashTableOfIvE14findBucketElemEPKvRj
                0x00000000000384f0       0x60 LINUX/depdom/DocumentImpl.o
                0x00000000000384f0                _ZN11xercesc_2_814RefHashTableOfIvE14findBucketElemEPKvRj
 .text._ZN11xercesc_2_815BaseRefVectorOfINS_9RangeImplEE17removeAllElementsEv
                0x0000000000038550       0x75 LINUX/depdom/DocumentImpl.o
                0x0000000000038550                _ZN11xercesc_2_815BaseRefVectorOfINS_9RangeImplEE17removeAllElementsEv
 *fill*         0x00000000000385c5        0xb 90909090
 .text._ZN11xercesc_2_815BaseRefVectorOfINS_9RangeImplEE17removeLastElementEv
                0x00000000000385d0       0x32 LINUX/depdom/DocumentImpl.o
                0x00000000000385d0                _ZN11xercesc_2_815BaseRefVectorOfINS_9RangeImplEE17removeLastElementEv
 *fill*         0x0000000000038602        0xe 90909090
 .text._ZN11xercesc_2_815BaseRefVectorOfINS_9RangeImplEE7cleanupEv
                0x0000000000038610       0x56 LINUX/depdom/DocumentImpl.o
                0x0000000000038610                _ZN11xercesc_2_815BaseRefVectorOfINS_9RangeImplEE7cleanupEv
 *fill*         0x0000000000038666        0xa 90909090
 .text._ZN11xercesc_2_815BaseRefVectorOfINS_14TreeWalkerImplEE17removeAllElementsEv
                0x0000000000038670       0x75 LINUX/depdom/DocumentImpl.o
                0x0000000000038670                _ZN11xercesc_2_815BaseRefVectorOfINS_14TreeWalkerImplEE17removeAllElementsEv
 *fill*         0x00000000000386e5        0xb 90909090
 .text._ZN11xercesc_2_815BaseRefVectorOfINS_14TreeWalkerImplEE17removeLastElementEv
                0x00000000000386f0       0x32 LINUX/depdom/DocumentImpl.o
                0x00000000000386f0                _ZN11xercesc_2_815BaseRefVectorOfINS_14TreeWalkerImplEE17removeLastElementEv
 *fill*         0x0000000000038722        0xe 90909090
 .text._ZN11xercesc_2_815BaseRefVectorOfINS_14TreeWalkerImplEE7cleanupEv
                0x0000000000038730       0x56 LINUX/depdom/DocumentImpl.o
                0x0000000000038730                _ZN11xercesc_2_815BaseRefVectorOfINS_14TreeWalkerImplEE7cleanupEv
 *fill*         0x0000000000038786        0xa 90909090
 .text._ZN11xercesc_2_815BaseRefVectorOfINS_16NodeIteratorImplEE17removeAllElementsEv
                0x0000000000038790       0x75 LINUX/depdom/DocumentImpl.o
                0x0000000000038790                _ZN11xercesc_2_815BaseRefVectorOfINS_16NodeIteratorImplEE17removeAllElementsEv
 *fill*         0x0000000000038805        0xb 90909090
 .text._ZN11xercesc_2_815BaseRefVectorOfINS_16NodeIteratorImplEE17removeLastElementEv
                0x0000000000038810       0x32 LINUX/depdom/DocumentImpl.o
                0x0000000000038810                _ZN11xercesc_2_815BaseRefVectorOfINS_16NodeIteratorImplEE17removeLastElementEv
 *fill*         0x0000000000038842        0xe 90909090
 .text._ZN11xercesc_2_815BaseRefVectorOfINS_16NodeIteratorImplEE7cleanupEv
                0x0000000000038850       0x56 LINUX/depdom/DocumentImpl.o
                0x0000000000038850                _ZN11xercesc_2_815BaseRefVectorOfINS_16NodeIteratorImplEE7cleanupEv
 *fill*         0x00000000000388a6        0xa 90909090
 .text._ZN11xercesc_2_815BaseRefVectorOfINS_9RangeImplEED0Ev
                0x00000000000388b0       0x13 LINUX/depdom/DocumentImpl.o
                0x00000000000388b0                _ZN11xercesc_2_815BaseRefVectorOfINS_9RangeImplEED0Ev
 *fill*         0x00000000000388c3        0xd 90909090
 .text._ZN11xercesc_2_815BaseRefVectorOfINS_14TreeWalkerImplEED0Ev
                0x00000000000388d0       0x13 LINUX/depdom/DocumentImpl.o
                0x00000000000388d0                _ZN11xercesc_2_815BaseRefVectorOfINS_14TreeWalkerImplEED0Ev
 *fill*         0x00000000000388e3        0xd 90909090
 .text._ZN11xercesc_2_815BaseRefVectorOfINS_16NodeIteratorImplEED0Ev
                0x00000000000388f0       0x13 LINUX/depdom/DocumentImpl.o
                0x00000000000388f0                _ZN11xercesc_2_815BaseRefVectorOfINS_16NodeIteratorImplEED0Ev
 *fill*         0x0000000000038903        0xd 90909090
 .text._ZN11xercesc_2_811RefVectorOfINS_9RangeImplEED0Ev
                0x0000000000038910       0x12 LINUX/depdom/DocumentImpl.o
                0x0000000000038910                _ZN11xercesc_2_811RefVectorOfINS_9RangeImplEED0Ev
 *fill*         0x0000000000038922        0xe 90909090
 .text._ZN11xercesc_2_811RefVectorOfINS_14TreeWalkerImplEED0Ev
                0x0000000000038930       0x12 LINUX/depdom/DocumentImpl.o
                0x0000000000038930                _ZN11xercesc_2_811RefVectorOfINS_14TreeWalkerImplEED0Ev
 *fill*         0x0000000000038942        0xe 90909090
 .text._ZN11xercesc_2_811RefVectorOfINS_16NodeIteratorImplEED0Ev
                0x0000000000038950       0x12 LINUX/depdom/DocumentImpl.o
                0x0000000000038950                _ZN11xercesc_2_811RefVectorOfINS_16NodeIteratorImplEED0Ev
 *fill*         0x0000000000038962        0xe 90909090
 .text._ZN11xercesc_2_814RefHashTableOfIvE10initializeEj
                0x0000000000038970       0xce LINUX/depdom/DocumentImpl.o
                0x0000000000038970                _ZN11xercesc_2_814RefHashTableOfIvE10initializeEj
 *fill*         0x0000000000038a3e        0x2 90909090
 .text._ZN11xercesc_2_824IllegalArgumentExceptionD2Ev
                0x0000000000038a40       0x13 LINUX/depdom/DocumentImpl.o
                0x0000000000038a40                _ZN11xercesc_2_824IllegalArgumentExceptionD1Ev
                0x0000000000038a40                _ZN11xercesc_2_824IllegalArgumentExceptionD2Ev
 *fill*         0x0000000000038a53        0xd 90909090
 .text._ZN11xercesc_2_814RefHashTableOfIvE9removeKeyEPKv
                0x0000000000038a60      0x128 LINUX/depdom/DocumentImpl.o
                0x0000000000038a60                _ZN11xercesc_2_814RefHashTableOfIvE9removeKeyEPKv
 *fill*         0x0000000000038b88        0x8 90909090
 .text._ZN11xercesc_2_822NoSuchElementExceptionD2Ev
                0x0000000000038b90       0x13 LINUX/depdom/DocumentImpl.o
                0x0000000000038b90                _ZN11xercesc_2_822NoSuchElementExceptionD1Ev
                0x0000000000038b90                _ZN11xercesc_2_822NoSuchElementExceptionD2Ev
 *fill*         0x0000000000038ba3        0xd 90909090
 .text._ZNK11xercesc_2_824IllegalArgumentException9duplicateEv
                0x0000000000038bb0       0x6c LINUX/depdom/DocumentImpl.o
                0x0000000000038bb0                _ZNK11xercesc_2_824IllegalArgumentException9duplicateEv
 *fill*         0x0000000000038c1c        0x4 90909090
 .text._ZNK11xercesc_2_822NoSuchElementException9duplicateEv
                0x0000000000038c20       0x6c LINUX/depdom/DocumentImpl.o
                0x0000000000038c20                _ZNK11xercesc_2_822NoSuchElementException9duplicateEv
 *fill*         0x0000000000038c8c        0x4 90909090
 .text._ZN11xercesc_2_812ArrayJanitorIPNS_22RefHashTableBucketElemIvEEED2Ev
                0x0000000000038c90       0x3a LINUX/depdom/DocumentImpl.o
                0x0000000000038c90                _ZN11xercesc_2_812ArrayJanitorIPNS_22RefHashTableBucketElemIvEEED2Ev
                0x0000000000038c90                _ZN11xercesc_2_812ArrayJanitorIPNS_22RefHashTableBucketElemIvEEED1Ev
 *fill*         0x0000000000038cca        0x6 90909090
 .text._ZN11xercesc_2_814RefHashTableOfIvE6rehashEv
                0x0000000000038cd0       0xfd LINUX/depdom/DocumentImpl.o
                0x0000000000038cd0                _ZN11xercesc_2_814RefHashTableOfIvE6rehashEv
 *fill*         0x0000000000038dcd        0x3 90909090
 .text._ZN11xercesc_2_822NoSuchElementExceptionD0Ev
                0x0000000000038dd0       0x20 LINUX/depdom/DocumentImpl.o
                0x0000000000038dd0                _ZN11xercesc_2_822NoSuchElementExceptionD0Ev
 .text._ZN11xercesc_2_824IllegalArgumentExceptionD0Ev
                0x0000000000038df0       0x20 LINUX/depdom/DocumentImpl.o
                0x0000000000038df0                _ZN11xercesc_2_824IllegalArgumentExceptionD0Ev
 .text._ZN11xercesc_2_815BaseRefVectorOfINS_9RangeImplEE12setElementAtEPS1_j
                0x0000000000038e10       0xe6 LINUX/depdom/DocumentImpl.o
                0x0000000000038e10                _ZN11xercesc_2_815BaseRefVectorOfINS_9RangeImplEE12setElementAtEPS1_j
 *fill*         0x0000000000038ef6        0xa 90909090
 .text._ZN11xercesc_2_815BaseRefVectorOfINS_14TreeWalkerImplEE12setElementAtEPS1_j
                0x0000000000038f00       0xe6 LINUX/depdom/DocumentImpl.o
                0x0000000000038f00                _ZN11xercesc_2_815BaseRefVectorOfINS_14TreeWalkerImplEE12setElementAtEPS1_j
 *fill*         0x0000000000038fe6        0xa 90909090
 .text._ZN11xercesc_2_815BaseRefVectorOfINS_16NodeIteratorImplEE12setElementAtEPS1_j
                0x0000000000038ff0       0xe6 LINUX/depdom/DocumentImpl.o
                0x0000000000038ff0                _ZN11xercesc_2_815BaseRefVectorOfINS_16NodeIteratorImplEE12setElementAtEPS1_j
 *fill*         0x00000000000390d6        0xa 90909090
 .text._ZN11xercesc_2_815BaseRefVectorOfINS_16NodeIteratorImplEE15removeElementAtEj
                0x00000000000390e0      0x116 LINUX/depdom/DocumentImpl.o
                0x00000000000390e0                _ZN11xercesc_2_815BaseRefVectorOfINS_16NodeIteratorImplEE15removeElementAtEj
 *fill*         0x00000000000391f6        0xa 90909090
 .text._ZN11xercesc_2_815BaseRefVectorOfINS_9RangeImplEE15removeElementAtEj
                0x0000000000039200      0x116 LINUX/depdom/DocumentImpl.o
                0x0000000000039200                _ZN11xercesc_2_815BaseRefVectorOfINS_9RangeImplEE15removeElementAtEj
 *fill*         0x0000000000039316        0xa 90909090
 .text._ZN11xercesc_2_815BaseRefVectorOfINS_14TreeWalkerImplEE15removeElementAtEj
                0x0000000000039320      0x116 LINUX/depdom/DocumentImpl.o
                0x0000000000039320                _ZN11xercesc_2_815BaseRefVectorOfINS_14TreeWalkerImplEE15removeElementAtEj
 *fill*         0x0000000000039436        0xa 90909090
 .text          0x0000000000039440      0xa97 LINUX/depdom/DocumentTypeImpl.o
                0x0000000000039440                _ZN11xercesc_2_816DocumentTypeImpl11getNodeTypeEv
                0x0000000000039450                _ZN11xercesc_2_816DocumentTypeImpl11getEntitiesEv
                0x0000000000039460                _ZN11xercesc_2_816DocumentTypeImpl11getElementsEv
                0x0000000000039470                _ZN11xercesc_2_816DocumentTypeImpl12getNotationsEv
                0x0000000000039480                _ZN11xercesc_2_816DocumentTypeImpl18isDocumentTypeImplEv
                0x0000000000039490                _ZN11xercesc_2_816DocumentTypeImpl18isIntSubsetReadingEv
                0x00000000000394a0                _ZN11xercesc_2_816DocumentTypeImpl17setInternalSubsetERKNS_9DOMStringE
                0x0000000000039520                _ZN11xercesc_2_816DocumentTypeImpl11setSystemIdERKNS_9DOMStringE
                0x00000000000395a0                _ZN11xercesc_2_816DocumentTypeImpl11setPublicIdERKNS_9DOMStringE
                0x0000000000039620                _ZN11xercesc_2_816DocumentTypeImpl17getInternalSubsetEv
                0x0000000000039640                _ZN11xercesc_2_816DocumentTypeImpl11getSystemIdEv
                0x0000000000039660                _ZN11xercesc_2_816DocumentTypeImpl11getPublicIdEv
                0x0000000000039680                _ZN11xercesc_2_816DocumentTypeImpl7getNameEv
                0x00000000000396a0                _ZN11xercesc_2_816DocumentTypeImpl11getNodeNameEv
                0x00000000000396c0                _ZN11xercesc_2_816DocumentTypeImpl11setReadOnlyEbb
                0x0000000000039710                _ZN11xercesc_2_816DocumentTypeImpl16setOwnerDocumentEPNS_12DocumentImplE
                0x0000000000039760                _ZN11xercesc_2_816DocumentTypeImplD2Ev
                0x0000000000039760                _ZN11xercesc_2_816DocumentTypeImplD1Ev
                0x0000000000039870                _ZN11xercesc_2_816DocumentTypeImplD0Ev
                0x0000000000039890                _ZN11xercesc_2_816DocumentTypeImplC2ERKS0_b
                0x0000000000039890                _ZN11xercesc_2_816DocumentTypeImplC1ERKS0_b
                0x0000000000039aa0                _ZN11xercesc_2_816DocumentTypeImpl9cloneNodeEb
                0x0000000000039b00                _ZN11xercesc_2_816DocumentTypeImplC1EPNS_12DocumentImplERKNS_9DOMStringES5_S5_
                0x0000000000039b00                _ZN11xercesc_2_816DocumentTypeImplC2EPNS_12DocumentImplERKNS_9DOMStringES5_S5_
                0x0000000000039d40                _ZN11xercesc_2_816DocumentTypeImplC1EPNS_12DocumentImplERKNS_9DOMStringE
                0x0000000000039d40                _ZN11xercesc_2_816DocumentTypeImplC2EPNS_12DocumentImplERKNS_9DOMStringE
 *fill*         0x0000000000039ed7        0x9 90909090
 .text          0x0000000000039ee0      0x115 LINUX/depdom/DOM_Attr.o
                0x0000000000039ee0                _ZNK11xercesc_2_88DOM_Attr12getSpecifiedEv
                0x0000000000039ef0                _ZNK11xercesc_2_88DOM_Attr8getValueEv
                0x0000000000039f10                _ZN11xercesc_2_88DOM_Attr8setValueERKNS_9DOMStringE
                0x0000000000039f20                _ZNK11xercesc_2_88DOM_Attr15getOwnerElementEv
                0x0000000000039f40                _ZNK11xercesc_2_88DOM_Attr7getNameEv
                0x0000000000039fa0                _ZN11xercesc_2_88DOM_AttraSEPKNS_11DOM_NullPtrE
                0x0000000000039fb0                _ZN11xercesc_2_88DOM_AttraSERKS0_
                0x0000000000039fc0                _ZN11xercesc_2_88DOM_AttrD1Ev
                0x0000000000039fc0                _ZN11xercesc_2_88DOM_AttrD2Ev
                0x0000000000039fd0                _ZN11xercesc_2_88DOM_AttrC2EPNS_8AttrImplE
                0x0000000000039fd0                _ZN11xercesc_2_88DOM_AttrC1EPNS_8AttrImplE
                0x0000000000039fe0                _ZN11xercesc_2_88DOM_AttrC2Ev
                0x0000000000039fe0                _ZN11xercesc_2_88DOM_AttrC1Ev
                0x0000000000039ff0                _ZN11xercesc_2_88DOM_AttrC1ERKS0_
                0x0000000000039ff0                _ZN11xercesc_2_88DOM_AttrC2ERKS0_
 *fill*         0x0000000000039ff5        0xb 90909090
 .text          0x000000000003a000       0x55 LINUX/depdom/DOM_CDATASection.o
                0x000000000003a000                _ZN11xercesc_2_816DOM_CDATASectionaSEPKNS_11DOM_NullPtrE
                0x000000000003a010                _ZN11xercesc_2_816DOM_CDATASectionaSERKS0_
                0x000000000003a020                _ZN11xercesc_2_816DOM_CDATASectionD1Ev
                0x000000000003a020                _ZN11xercesc_2_816DOM_CDATASectionD2Ev
                0x000000000003a030                _ZN11xercesc_2_816DOM_CDATASectionC1EPNS_16CDATASectionImplE
                0x000000000003a030                _ZN11xercesc_2_816DOM_CDATASectionC2EPNS_16CDATASectionImplE
                0x000000000003a040                _ZN11xercesc_2_816DOM_CDATASectionC1Ev
                0x000000000003a040                _ZN11xercesc_2_816DOM_CDATASectionC2Ev
                0x000000000003a050                _ZN11xercesc_2_816DOM_CDATASectionC2ERKS0_
                0x000000000003a050                _ZN11xercesc_2_816DOM_CDATASectionC1ERKS0_
 *fill*         0x000000000003a055        0xb 90909090
 .text          0x000000000003a060       0xf7 LINUX/depdom/DOM_CharacterData.o
                0x000000000003a060                _ZN11xercesc_2_817DOM_CharacterData7setDataERKNS_9DOMStringE
                0x000000000003a070                _ZNK11xercesc_2_817DOM_CharacterData9getLengthEv
                0x000000000003a080                _ZNK11xercesc_2_817DOM_CharacterData13substringDataEjj
                0x000000000003a0a0                _ZN11xercesc_2_817DOM_CharacterData10appendDataERKNS_9DOMStringE
                0x000000000003a0b0                _ZN11xercesc_2_817DOM_CharacterData10insertDataEjRKNS_9DOMStringE
                0x000000000003a0c0                _ZN11xercesc_2_817DOM_CharacterData10deleteDataEjj
                0x000000000003a0d0                _ZN11xercesc_2_817DOM_CharacterData11replaceDataEjjRKNS_9DOMStringE
                0x000000000003a0e0                _ZNK11xercesc_2_817DOM_CharacterData7getDataEv
                0x000000000003a100                _ZN11xercesc_2_817DOM_CharacterDataaSEPKNS_11DOM_NullPtrE
                0x000000000003a110                _ZN11xercesc_2_817DOM_CharacterDataaSERKS0_
                0x000000000003a120                _ZN11xercesc_2_817DOM_CharacterDataD1Ev
                0x000000000003a120                _ZN11xercesc_2_817DOM_CharacterDataD2Ev
                0x000000000003a130                _ZN11xercesc_2_817DOM_CharacterDataC1ERKS0_
                0x000000000003a130                _ZN11xercesc_2_817DOM_CharacterDataC2ERKS0_
                0x000000000003a140                _ZN11xercesc_2_817DOM_CharacterDataC2EPNS_17CharacterDataImplE
                0x000000000003a140                _ZN11xercesc_2_817DOM_CharacterDataC1EPNS_17CharacterDataImplE
                0x000000000003a150                _ZN11xercesc_2_817DOM_CharacterDataC1Ev
                0x000000000003a150                _ZN11xercesc_2_817DOM_CharacterDataC2Ev
 *fill*         0x000000000003a157        0x9 90909090
 .text          0x000000000003a160       0x55 LINUX/depdom/DOM_Comment.o
                0x000000000003a160                _ZN11xercesc_2_811DOM_CommentaSEPKNS_11DOM_NullPtrE
                0x000000000003a170                _ZN11xercesc_2_811DOM_CommentaSERKS0_
                0x000000000003a180                _ZN11xercesc_2_811DOM_CommentD1Ev
                0x000000000003a180                _ZN11xercesc_2_811DOM_CommentD2Ev
                0x000000000003a190                _ZN11xercesc_2_811DOM_CommentC1EPNS_11CommentImplE
                0x000000000003a190                _ZN11xercesc_2_811DOM_CommentC2EPNS_11CommentImplE
                0x000000000003a1a0                _ZN11xercesc_2_811DOM_CommentC1Ev
                0x000000000003a1a0                _ZN11xercesc_2_811DOM_CommentC2Ev
                0x000000000003a1b0                _ZN11xercesc_2_811DOM_CommentC2ERKS0_
                0x000000000003a1b0                _ZN11xercesc_2_811DOM_CommentC1ERKS0_
 *fill*         0x000000000003a1b5        0xb 90909090
 .text          0x000000000003a1c0       0x55 LINUX/depdom/DOM_DocumentFragment.o
                0x000000000003a1c0                _ZN11xercesc_2_820DOM_DocumentFragmentaSEPKNS_11DOM_NullPtrE
                0x000000000003a1d0                _ZN11xercesc_2_820DOM_DocumentFragmentaSERKS0_
                0x000000000003a1e0                _ZN11xercesc_2_820DOM_DocumentFragmentD1Ev
                0x000000000003a1e0                _ZN11xercesc_2_820DOM_DocumentFragmentD2Ev
                0x000000000003a1f0                _ZN11xercesc_2_820DOM_DocumentFragmentC2EPNS_20DocumentFragmentImplE
                0x000000000003a1f0                _ZN11xercesc_2_820DOM_DocumentFragmentC1EPNS_20DocumentFragmentImplE
                0x000000000003a200                _ZN11xercesc_2_820DOM_DocumentFragmentC1Ev
                0x000000000003a200                _ZN11xercesc_2_820DOM_DocumentFragmentC2Ev
                0x000000000003a210                _ZN11xercesc_2_820DOM_DocumentFragmentC1ERKS0_
                0x000000000003a210                _ZN11xercesc_2_820DOM_DocumentFragmentC2ERKS0_
 *fill*         0x000000000003a215        0xb 90909090
 .text          0x000000000003a220      0x638 LINUX/depdom/DOM_Document.o
                0x000000000003a220                _ZN11xercesc_2_812DOM_Document16setErrorCheckingEb
                0x000000000003a230                _ZN11xercesc_2_812DOM_Document16getErrorCheckingEv
                0x000000000003a240                _ZN11xercesc_2_812DOM_Document11createRangeEv
                0x000000000003a260                _ZN11xercesc_2_812DOM_Document13createXMLDeclERKNS_9DOMStringES3_S3_
                0x000000000003a290                _ZN11xercesc_2_812DOM_Document14getElementByIdERKNS_9DOMStringE
                0x000000000003a2c0                _ZN11xercesc_2_812DOM_Document15createElementNSERKNS_9DOMStringES3_
                0x000000000003a2f0                _ZN11xercesc_2_812DOM_Document13createElementEPKt
                0x000000000003a320                _ZN11xercesc_2_812DOM_Document13createElementERKNS_9DOMStringE
                0x000000000003a350                _ZNK11xercesc_2_812DOM_Document18getDocumentElementEv
                0x000000000003a370                _ZNK11xercesc_2_812DOM_Document22getElementsByTagNameNSERKNS_9DOMStringES3_
                0x000000000003a3a0                _ZNK11xercesc_2_812DOM_Document20getElementsByTagNameERKNS_9DOMStringE
                0x000000000003a3d0                _ZN11xercesc_2_812DOM_Document17createAttributeNSERKNS_9DOMStringES3_
                0x000000000003a400                _ZN11xercesc_2_812DOM_Document15createAttributeERKNS_9DOMStringE
                0x000000000003a430                _ZN11xercesc_2_812DOM_Document10importNodeERKNS_8DOM_NodeEb
                0x000000000003a460                _ZN11xercesc_2_812DOM_Document16createTreeWalkerENS_8DOM_NodeEmPNS_14DOM_NodeFilterEb
                0x000000000003a510                _ZN11xercesc_2_812DOM_Document18createNodeIteratorENS_8DOM_NodeEmPNS_14DOM_NodeFilterEb
                0x000000000003a5c0                _ZN11xercesc_2_812DOM_Document21createEntityReferenceERKNS_9DOMStringE
                0x000000000003a5f0                _ZN11xercesc_2_812DOM_Document27createProcessingInstructionERKNS_9DOMStringES3_
                0x000000000003a620                _ZN11xercesc_2_812DOM_Document18createCDATASectionERKNS_9DOMStringE
                0x000000000003a650                _ZN11xercesc_2_812DOM_Document13createCommentERKNS_9DOMStringE
                0x000000000003a680                _ZN11xercesc_2_812DOM_Document14createTextNodeERKNS_9DOMStringE
                0x000000000003a6b0                _ZN11xercesc_2_812DOM_Document18createDocumentTypeERKNS_9DOMStringE
                0x000000000003a6e0                _ZNK11xercesc_2_812DOM_Document10getDoctypeEv
                0x000000000003a700                _ZN11xercesc_2_812DOM_Document22createDocumentFragmentEv
                0x000000000003a720                _ZN11xercesc_2_812DOM_Document12createEntityERKNS_9DOMStringE
                0x000000000003a750                _ZNK11xercesc_2_812DOM_Document17getImplementationEv
                0x000000000003a760                _ZN11xercesc_2_812DOM_Document14createNotationERKNS_9DOMStringE
                0x000000000003a790                _ZN11xercesc_2_812DOM_DocumentaSEPKNS_11DOM_NullPtrE
                0x000000000003a7a0                _ZN11xercesc_2_812DOM_DocumentaSERKS0_
                0x000000000003a7b0                _ZN11xercesc_2_812DOM_DocumentD1Ev
                0x000000000003a7b0                _ZN11xercesc_2_812DOM_DocumentD2Ev
                0x000000000003a7c0                _ZN11xercesc_2_812DOM_DocumentC1ERKS0_
                0x000000000003a7c0                _ZN11xercesc_2_812DOM_DocumentC2ERKS0_
                0x000000000003a7d0                _ZN11xercesc_2_812DOM_DocumentC2Ev
                0x000000000003a7d0                _ZN11xercesc_2_812DOM_DocumentC1Ev
                0x000000000003a7e0                _ZN11xercesc_2_812DOM_DocumentC1EPNS_12DocumentImplE
                0x000000000003a7e0                _ZN11xercesc_2_812DOM_DocumentC2EPNS_12DocumentImplE
                0x000000000003a7f0                _ZN11xercesc_2_812DOM_Document14createDocumentEPNS_13MemoryManagerE
 *fill*         0x000000000003a858        0x8 90909090
 .text          0x000000000003a860      0x225 LINUX/depdom/DOM_DocumentType.o
                0x000000000003a860                _ZNK11xercesc_2_816DOM_DocumentType17getInternalSubsetEv
                0x000000000003a8c0                _ZNK11xercesc_2_816DOM_DocumentType11getSystemIdEv
                0x000000000003a920                _ZNK11xercesc_2_816DOM_DocumentType11getPublicIdEv
                0x000000000003a980                _ZNK11xercesc_2_816DOM_DocumentType7getNameEv
                0x000000000003a9e0                _ZNK11xercesc_2_816DOM_DocumentType12getNotationsEv
                0x000000000003aa00                _ZNK11xercesc_2_816DOM_DocumentType11getEntitiesEv
                0x000000000003aa20                _ZN11xercesc_2_816DOM_DocumentTypeaSEPKNS_11DOM_NullPtrE
                0x000000000003aa30                _ZN11xercesc_2_816DOM_DocumentTypeaSERKS0_
                0x000000000003aa40                _ZN11xercesc_2_816DOM_DocumentTypeD2Ev
                0x000000000003aa40                _ZN11xercesc_2_816DOM_DocumentTypeD1Ev
                0x000000000003aa50                _ZN11xercesc_2_816DOM_DocumentTypeC1EPNS_16DocumentTypeImplE
                0x000000000003aa50                _ZN11xercesc_2_816DOM_DocumentTypeC2EPNS_16DocumentTypeImplE
                0x000000000003aa60                _ZN11xercesc_2_816DOM_DocumentTypeC1Ei
                0x000000000003aa60                _ZN11xercesc_2_816DOM_DocumentTypeC2Ei
                0x000000000003aa70                _ZN11xercesc_2_816DOM_DocumentTypeC1Ev
                0x000000000003aa70                _ZN11xercesc_2_816DOM_DocumentTypeC2Ev
                0x000000000003aa80                _ZN11xercesc_2_816DOM_DocumentTypeC1ERKS0_
                0x000000000003aa80                _ZN11xercesc_2_816DOM_DocumentTypeC2ERKS0_
 *fill*         0x000000000003aa85        0xb 90909090
 .text          0x000000000003aa90      0x106 LINUX/depdom/DOM_DOMException.o
                0x000000000003aa90                _ZN11xercesc_2_816DOM_DOMExceptionD2Ev
                0x000000000003aa90                _ZN11xercesc_2_816DOM_DOMExceptionD1Ev
                0x000000000003aab0                _ZN11xercesc_2_816DOM_DOMExceptionD0Ev
                0x000000000003aad0                _ZN11xercesc_2_816DOM_DOMExceptionC1ERKS0_
                0x000000000003aad0                _ZN11xercesc_2_816DOM_DOMExceptionC2ERKS0_
                0x000000000003ab20                _ZN11xercesc_2_816DOM_DOMExceptionC2EsRKNS_9DOMStringE
                0x000000000003ab20                _ZN11xercesc_2_816DOM_DOMExceptionC1EsRKNS_9DOMStringE
                0x000000000003ab70                _ZN11xercesc_2_816DOM_DOMExceptionC1Ev
                0x000000000003ab70                _ZN11xercesc_2_816DOM_DOMExceptionC2Ev
 *fill*         0x000000000003ab96        0xa 90909090
 .text          0x000000000003aba0      0x6e6 LINUX/depdom/DOM_DOMImplementation.o
                0x000000000003aba0                _ZN11xercesc_2_821DOM_DOMImplementationC2Ev
                0x000000000003aba0                _ZN11xercesc_2_821DOM_DOMImplementationC1Ev
                0x000000000003abb0                _ZN11xercesc_2_821DOM_DOMImplementationC2ERKS0_
                0x000000000003abb0                _ZN11xercesc_2_821DOM_DOMImplementationC1ERKS0_
                0x000000000003abc0                _ZN11xercesc_2_821DOM_DOMImplementationD2Ev
                0x000000000003abc0                _ZN11xercesc_2_821DOM_DOMImplementationD1Ev
                0x000000000003abd0                _ZN11xercesc_2_821DOM_DOMImplementationaSERKS0_
                0x000000000003ac20                _ZN11xercesc_2_821DOM_DOMImplementation27reinitDOM_DOMImplementationEv
                0x000000000003ad10                _ZN11xercesc_2_821DOM_DOMImplementation14createDocumentERKNS_9DOMStringES3_RKNS_16DOM_DocumentTypeEPNS_13MemoryManagerE
                0x000000000003add0                _ZN11xercesc_2_821DOM_DOMImplementation18createDocumentTypeERKNS_9DOMStringES3_S3_
                0x000000000003af30                _ZN11xercesc_2_821DOM_DOMImplementation10hasFeatureERKNS_9DOMStringES3_
                0x000000000003b180                _ZN11xercesc_2_821DOM_DOMImplementation17getImplementationEv
 *fill*         0x000000000003b286        0xa 90909090
 .text          0x000000000003b290      0x335 LINUX/depdom/DOM_Element.o
                0x000000000003b290                _ZN11xercesc_2_811DOM_Element12setAttributeERKNS_9DOMStringES3_
                0x000000000003b2a0                _ZN11xercesc_2_811DOM_Element15removeAttributeERKNS_9DOMStringE
                0x000000000003b2b0                _ZN11xercesc_2_811DOM_Element14setAttributeNSERKNS_9DOMStringES3_S3_
                0x000000000003b2c0                _ZN11xercesc_2_811DOM_Element17removeAttributeNSERKNS_9DOMStringES3_
                0x000000000003b2d0                _ZNK11xercesc_2_811DOM_Element13hasAttributesEv
                0x000000000003b2e0                _ZNK11xercesc_2_811DOM_Element12hasAttributeERKNS_9DOMStringE
                0x000000000003b2f0                _ZNK11xercesc_2_811DOM_Element14hasAttributeNSERKNS_9DOMStringES3_
                0x000000000003b300                _ZNK11xercesc_2_811DOM_Element22getElementsByTagNameNSERKNS_9DOMStringES3_
                0x000000000003b330                _ZNK11xercesc_2_811DOM_Element20getElementsByTagNameERKNS_9DOMStringE
                0x000000000003b360                _ZN11xercesc_2_811DOM_Element18setAttributeNodeNSENS_8DOM_AttrE
                0x000000000003b390                _ZNK11xercesc_2_811DOM_Element18getAttributeNodeNSERKNS_9DOMStringES3_
                0x000000000003b3c0                _ZN11xercesc_2_811DOM_Element19removeAttributeNodeENS_8DOM_AttrE
                0x000000000003b3f0                _ZN11xercesc_2_811DOM_Element16setAttributeNodeENS_8DOM_AttrE
                0x000000000003b420                _ZNK11xercesc_2_811DOM_Element16getAttributeNodeERKNS_9DOMStringE
                0x000000000003b450                _ZNK11xercesc_2_811DOM_Element14getAttributeNSERKNS_9DOMStringES3_
                0x000000000003b4b0                _ZNK11xercesc_2_811DOM_Element12getAttributeERKNS_9DOMStringE
                0x000000000003b510                _ZNK11xercesc_2_811DOM_Element10getTagNameEv
                0x000000000003b570                _ZN11xercesc_2_811DOM_ElementaSEPKNS_11DOM_NullPtrE
                0x000000000003b580                _ZN11xercesc_2_811DOM_ElementaSERKS0_
                0x000000000003b590                _ZN11xercesc_2_811DOM_ElementD1Ev
                0x000000000003b590                _ZN11xercesc_2_811DOM_ElementD2Ev
                0x000000000003b5a0                _ZN11xercesc_2_811DOM_ElementC1EPNS_11ElementImplE
                0x000000000003b5a0                _ZN11xercesc_2_811DOM_ElementC2EPNS_11ElementImplE
                0x000000000003b5b0                _ZN11xercesc_2_811DOM_ElementC1Ev
                0x000000000003b5b0                _ZN11xercesc_2_811DOM_ElementC2Ev
                0x000000000003b5c0                _ZN11xercesc_2_811DOM_ElementC1ERKS0_
                0x000000000003b5c0                _ZN11xercesc_2_811DOM_ElementC2ERKS0_
 *fill*         0x000000000003b5c5        0xb 90909090
 .text          0x000000000003b5d0      0x225 LINUX/depdom/DOM_Entity.o
                0x000000000003b5d0                _ZNK11xercesc_2_810DOM_Entity13hasChildNodesEv
                0x000000000003b5e0                _ZNK11xercesc_2_810DOM_Entity14getNextSiblingEv
                0x000000000003b600                _ZNK11xercesc_2_810DOM_Entity18getPreviousSiblingEv
                0x000000000003b620                _ZNK11xercesc_2_810DOM_Entity12getLastChildEv
                0x000000000003b640                _ZNK11xercesc_2_810DOM_Entity13getFirstChildEv
                0x000000000003b660                _ZNK11xercesc_2_810DOM_Entity13getChildNodesEv
                0x000000000003b680                _ZNK11xercesc_2_810DOM_Entity15getNotationNameEv
                0x000000000003b6e0                _ZNK11xercesc_2_810DOM_Entity11getSystemIdEv
                0x000000000003b740                _ZNK11xercesc_2_810DOM_Entity11getPublicIdEv
                0x000000000003b7a0                _ZN11xercesc_2_810DOM_EntityaSEPKNS_11DOM_NullPtrE
                0x000000000003b7b0                _ZN11xercesc_2_810DOM_EntityaSERKS0_
                0x000000000003b7c0                _ZN11xercesc_2_810DOM_EntityD1Ev
                0x000000000003b7c0                _ZN11xercesc_2_810DOM_EntityD2Ev
                0x000000000003b7d0                _ZN11xercesc_2_810DOM_EntityC2EPNS_10EntityImplE
                0x000000000003b7d0                _ZN11xercesc_2_810DOM_EntityC1EPNS_10EntityImplE
                0x000000000003b7e0                _ZN11xercesc_2_810DOM_EntityC2Ev
                0x000000000003b7e0                _ZN11xercesc_2_810DOM_EntityC1Ev
                0x000000000003b7f0                _ZN11xercesc_2_810DOM_EntityC1ERKS0_
                0x000000000003b7f0                _ZN11xercesc_2_810DOM_EntityC2ERKS0_
 *fill*         0x000000000003b7f5        0xb 90909090
 .text          0x000000000003b800       0x55 LINUX/depdom/DOM_EntityReference.o
                0x000000000003b800                _ZN11xercesc_2_819DOM_EntityReferenceaSEPKNS_11DOM_NullPtrE
                0x000000000003b810                _ZN11xercesc_2_819DOM_EntityReferenceaSERKS0_
                0x000000000003b820                _ZN11xercesc_2_819DOM_EntityReferenceD2Ev
                0x000000000003b820                _ZN11xercesc_2_819DOM_EntityReferenceD1Ev
                0x000000000003b830                _ZN11xercesc_2_819DOM_EntityReferenceC1EPNS_19EntityReferenceImplE
                0x000000000003b830                _ZN11xercesc_2_819DOM_EntityReferenceC2EPNS_19EntityReferenceImplE
                0x000000000003b840                _ZN11xercesc_2_819DOM_EntityReferenceC2Ev
                0x000000000003b840                _ZN11xercesc_2_819DOM_EntityReferenceC1Ev
                0x000000000003b850                _ZN11xercesc_2_819DOM_EntityReferenceC1ERKS0_
                0x000000000003b850                _ZN11xercesc_2_819DOM_EntityReferenceC2ERKS0_
 *fill*         0x000000000003b855        0xb 90909090
 .text          0x000000000003b860      0x1b0 LINUX/depdom/DomMemDebug.o
                0x000000000003b860                _ZN11xercesc_2_811DomMemDebugC1Ev
                0x000000000003b860                _ZN11xercesc_2_811DomMemDebugC2Ev
                0x000000000003b8c0                _ZN11xercesc_2_811DomMemDebugD1Ev
                0x000000000003b8c0                _ZN11xercesc_2_811DomMemDebugD2Ev
                0x000000000003b8d0                _ZN11xercesc_2_811DomMemDebugeqERKS0_
                0x000000000003b900                _ZN11xercesc_2_811DomMemDebugneERKS0_
                0x000000000003b920                _ZN11xercesc_2_811DomMemDebugaSERKS0_
                0x000000000003b950                _ZN11xercesc_2_811DomMemDebug5printEv
                0x000000000003b990                _ZN11xercesc_2_811DomMemDebug15printDifferenceERKS0_
 .text          0x000000000003ba10      0x3f8 LINUX/depdom/DOM_NamedNodeMap.o
                0x000000000003ba10                _ZN11xercesc_2_816DOM_NamedNodeMapC2Ev
                0x000000000003ba10                _ZN11xercesc_2_816DOM_NamedNodeMapC1Ev
                0x000000000003ba20                _ZNK11xercesc_2_816DOM_NamedNodeMapeqERKS0_
                0x000000000003ba30                _ZNK11xercesc_2_816DOM_NamedNodeMapneERKS0_
                0x000000000003ba40                _ZNK11xercesc_2_816DOM_NamedNodeMapeqEPKNS_11DOM_NullPtrE
                0x000000000003ba50                _ZNK11xercesc_2_816DOM_NamedNodeMapneEPKNS_11DOM_NullPtrE
                0x000000000003ba60                _ZNK11xercesc_2_816DOM_NamedNodeMap9getLengthEv
                0x000000000003ba90                _ZN11xercesc_2_816DOM_NamedNodeMap17removeNamedItemNSERKNS_9DOMStringES3_
                0x000000000003bae0                _ZN11xercesc_2_816DOM_NamedNodeMap14setNamedItemNSENS_8DOM_NodeE
                0x000000000003bb30                _ZN11xercesc_2_816DOM_NamedNodeMap14getNamedItemNSERKNS_9DOMStringES3_
                0x000000000003bb80                _ZNK11xercesc_2_816DOM_NamedNodeMap4itemEj
                0x000000000003bbd0                _ZN11xercesc_2_816DOM_NamedNodeMap15removeNamedItemERKNS_9DOMStringE
                0x000000000003bc20                _ZN11xercesc_2_816DOM_NamedNodeMap12setNamedItemENS_8DOM_NodeE
                0x000000000003bc70                _ZNK11xercesc_2_816DOM_NamedNodeMap12getNamedItemERKNS_9DOMStringE
                0x000000000003bcc0                _ZN11xercesc_2_816DOM_NamedNodeMapaSEPKNS_11DOM_NullPtrE
                0x000000000003bd00                _ZN11xercesc_2_816DOM_NamedNodeMapD2Ev
                0x000000000003bd00                _ZN11xercesc_2_816DOM_NamedNodeMapD1Ev
                0x000000000003bd20                _ZN11xercesc_2_816DOM_NamedNodeMapC2EPNS_16NamedNodeMapImplE
                0x000000000003bd20                _ZN11xercesc_2_816DOM_NamedNodeMapC1EPNS_16NamedNodeMapImplE
                0x000000000003bd50                _ZN11xercesc_2_816DOM_NamedNodeMapaSERKS0_
                0x000000000003bdc0                _ZN11xercesc_2_816DOM_NamedNodeMapC2EPNS_8NodeImplE
                0x000000000003bdc0                _ZN11xercesc_2_816DOM_NamedNodeMapC1EPNS_8NodeImplE
                0x000000000003bde0                _ZN11xercesc_2_816DOM_NamedNodeMapC1ERKS0_
                0x000000000003bde0                _ZN11xercesc_2_816DOM_NamedNodeMapC2ERKS0_
 *fill*         0x000000000003be08        0x8 90909090
 .text          0x000000000003be10       0x32 LINUX/depdom/DOM_NodeFilter.o
                0x000000000003be10                _ZN11xercesc_2_814DOM_NodeFilterC2Ev
                0x000000000003be10                _ZN11xercesc_2_814DOM_NodeFilterC1Ev
                0x000000000003be20                _ZN11xercesc_2_814DOM_NodeFilterD1Ev
                0x000000000003be20                _ZN11xercesc_2_814DOM_NodeFilterD2Ev
                0x000000000003be30                _ZN11xercesc_2_814DOM_NodeFilterD0Ev
 *fill*         0x000000000003be42        0xe 90909090
 .text          0x000000000003be50      0x19b LINUX/depdom/DOM_NodeIterator.o
                0x000000000003be50                _ZN11xercesc_2_816DOM_NodeIteratorC2Ev
                0x000000000003be50                _ZN11xercesc_2_816DOM_NodeIteratorC1Ev
                0x000000000003be60                _ZNK11xercesc_2_816DOM_NodeIteratorneERKS0_
                0x000000000003be70                _ZNK11xercesc_2_816DOM_NodeIteratoreqERKS0_
                0x000000000003be80                _ZNK11xercesc_2_816DOM_NodeIteratorneEPKNS_11DOM_NullPtrE
                0x000000000003be90                _ZNK11xercesc_2_816DOM_NodeIteratoreqEPKNS_11DOM_NullPtrE
                0x000000000003bea0                _ZN11xercesc_2_816DOM_NodeIterator12previousNodeEv
                0x000000000003bec0                _ZN11xercesc_2_816DOM_NodeIterator8nextNodeEv
                0x000000000003bee0                _ZN11xercesc_2_816DOM_NodeIterator25getExpandEntityReferencesEv
                0x000000000003bf00                _ZN11xercesc_2_816DOM_NodeIterator9getFilterEv
                0x000000000003bf10                _ZN11xercesc_2_816DOM_NodeIterator13getWhatToShowEv
                0x000000000003bf20                _ZN11xercesc_2_816DOM_NodeIterator7getRootEv
                0x000000000003bf40                _ZN11xercesc_2_816DOM_NodeIterator6detachEv
                0x000000000003bf50                _ZN11xercesc_2_816DOM_NodeIteratorD2Ev
                0x000000000003bf50                _ZN11xercesc_2_816DOM_NodeIteratorD1Ev
                0x000000000003bf70                _ZN11xercesc_2_816DOM_NodeIteratoraSEPKNS_11DOM_NullPtrE
                0x000000000003bf90                _ZN11xercesc_2_816DOM_NodeIteratoraSERKS0_
                0x000000000003bfd0                _ZN11xercesc_2_816DOM_NodeIteratorC1ERKS0_
                0x000000000003bfd0                _ZN11xercesc_2_816DOM_NodeIteratorC2ERKS0_
                0x000000000003bfe0                _ZN11xercesc_2_816DOM_NodeIteratorC1EPNS_16NodeIteratorImplE
                0x000000000003bfe0                _ZN11xercesc_2_816DOM_NodeIteratorC2EPNS_16NodeIteratorImplE
 *fill*         0x000000000003bfeb        0x5 90909090
 .text          0x000000000003bff0      0x11b LINUX/depdom/DOM_NodeList.o
                0x000000000003bff0                _ZN11xercesc_2_812DOM_NodeListC2Ev
                0x000000000003bff0                _ZN11xercesc_2_812DOM_NodeListC1Ev
                0x000000000003c000                _ZNK11xercesc_2_812DOM_NodeListeqERKS0_
                0x000000000003c010                _ZNK11xercesc_2_812DOM_NodeListneERKS0_
                0x000000000003c020                _ZNK11xercesc_2_812DOM_NodeListeqEPKNS_11DOM_NullPtrE
                0x000000000003c030                _ZNK11xercesc_2_812DOM_NodeListneEPKNS_11DOM_NullPtrE
                0x000000000003c040                _ZNK11xercesc_2_812DOM_NodeList9getLengthEv
                0x000000000003c050                _ZNK11xercesc_2_812DOM_NodeList4itemEj
                0x000000000003c070                _ZN11xercesc_2_812DOM_NodeListD2Ev
                0x000000000003c070                _ZN11xercesc_2_812DOM_NodeListD1Ev
                0x000000000003c090                _ZN11xercesc_2_812DOM_NodeListaSEPKNS_11DOM_NullPtrE
                0x000000000003c0b0                _ZN11xercesc_2_812DOM_NodeListaSERKS0_
                0x000000000003c0f0                _ZN11xercesc_2_812DOM_NodeListC1ERKS0_
                0x000000000003c0f0                _ZN11xercesc_2_812DOM_NodeListC2ERKS0_
                0x000000000003c100                _ZN11xercesc_2_812DOM_NodeListC1EPNS_12NodeListImplE
                0x000000000003c100                _ZN11xercesc_2_812DOM_NodeListC2EPNS_12NodeListImplE
 *fill*         0x000000000003c10b        0x5 90909090
 .text          0x000000000003c110      0x5b3 LINUX/depdom/DOM_Node.o
                0x000000000003c110                _ZN11xercesc_2_88DOM_NodeC2Ev
                0x000000000003c110                _ZN11xercesc_2_88DOM_NodeC1Ev
                0x000000000003c120                _ZNK11xercesc_2_88DOM_NodeneERKS0_
                0x000000000003c130                _ZNK11xercesc_2_88DOM_NodeeqERKS0_
                0x000000000003c140                _ZNK11xercesc_2_88DOM_NodeneEPKNS_11DOM_NullPtrE
                0x000000000003c150                _ZNK11xercesc_2_88DOM_NodeeqEPKNS_11DOM_NullPtrE
                0x000000000003c160                _ZNK11xercesc_2_88DOM_Node11getNodeTypeEv
                0x000000000003c170                _ZNK11xercesc_2_88DOM_Node11getUserDataEv
                0x000000000003c180                _ZNK11xercesc_2_88DOM_Node13hasChildNodesEv
                0x000000000003c190                _ZNK11xercesc_2_88DOM_Node6isNullEv
                0x000000000003c1a0                _ZN11xercesc_2_88DOM_Node12setNodeValueERKNS_9DOMStringE
                0x000000000003c1b0                _ZN11xercesc_2_88DOM_Node11setUserDataEPv
                0x000000000003c1c0                _ZN11xercesc_2_88DOM_Node9normalizeEv
                0x000000000003c1d0                _ZNK11xercesc_2_88DOM_Node11isSupportedERKNS_9DOMStringES3_
                0x000000000003c1e0                _ZN11xercesc_2_88DOM_Node9setPrefixERKNS_9DOMStringE
                0x000000000003c1f0                _ZNK11xercesc_2_88DOM_Node13hasAttributesEv
                0x000000000003c200                _ZNK11xercesc_2_88DOM_Node12getLocalNameEv
                0x000000000003c260                _ZNK11xercesc_2_88DOM_Node9getPrefixEv
                0x000000000003c2c0                _ZNK11xercesc_2_88DOM_Node15getNamespaceURIEv
                0x000000000003c320                _ZNK11xercesc_2_88DOM_Node12getNodeValueEv
                0x000000000003c380                _ZNK11xercesc_2_88DOM_Node11getNodeNameEv
                0x000000000003c3e0                _ZNK11xercesc_2_88DOM_Node16getOwnerDocumentEv
                0x000000000003c400                _ZNK11xercesc_2_88DOM_Node13getAttributesEv
                0x000000000003c480                _ZNK11xercesc_2_88DOM_Node13getChildNodesEv
                0x000000000003c4a0                _ZN11xercesc_2_88DOM_NodeD2Ev
                0x000000000003c4a0                _ZN11xercesc_2_88DOM_NodeD1Ev
                0x000000000003c4c0                _ZN11xercesc_2_88DOM_NodeaSEPKNS_11DOM_NullPtrE
                0x000000000003c4e0                _ZN11xercesc_2_88DOM_NodeaSERKS0_
                0x000000000003c520                _ZN11xercesc_2_88DOM_NodeC1ERKS0_
                0x000000000003c520                _ZN11xercesc_2_88DOM_NodeC2ERKS0_
                0x000000000003c530                _ZN11xercesc_2_88DOM_NodeC2EPNS_8NodeImplE
                0x000000000003c530                _ZN11xercesc_2_88DOM_NodeC1EPNS_8NodeImplE
                0x000000000003c540                _ZN11xercesc_2_88DOM_Node11removeChildERKS0_
                0x000000000003c570                _ZN11xercesc_2_88DOM_Node12replaceChildERKS0_S2_
                0x000000000003c5a0                _ZN11xercesc_2_88DOM_Node12insertBeforeERKS0_S2_
                0x000000000003c5d0                _ZNK11xercesc_2_88DOM_Node14getNextSiblingEv
                0x000000000003c5f0                _ZNK11xercesc_2_88DOM_Node18getPreviousSiblingEv
                0x000000000003c610                _ZNK11xercesc_2_88DOM_Node12getLastChildEv
                0x000000000003c630                _ZNK11xercesc_2_88DOM_Node13getFirstChildEv
                0x000000000003c650                _ZNK11xercesc_2_88DOM_Node13getParentNodeEv
                0x000000000003c670                _ZNK11xercesc_2_88DOM_Node9cloneNodeEb
                0x000000000003c6a0                _ZN11xercesc_2_88DOM_Node11appendChildERKS0_
 *fill*         0x000000000003c6c3        0xd 90909090
 .text          0x000000000003c6d0       0x95 LINUX/depdom/DOM_Notation.o
                0x000000000003c6d0                _ZNK11xercesc_2_812DOM_Notation11getPublicIdEv
                0x000000000003c6f0                _ZNK11xercesc_2_812DOM_Notation11getSystemIdEv
                0x000000000003c710                _ZN11xercesc_2_812DOM_NotationaSEPKNS_11DOM_NullPtrE
                0x000000000003c720                _ZN11xercesc_2_812DOM_NotationaSERKS0_
                0x000000000003c730                _ZN11xercesc_2_812DOM_NotationD2Ev
                0x000000000003c730                _ZN11xercesc_2_812DOM_NotationD1Ev
                0x000000000003c740                _ZN11xercesc_2_812DOM_NotationC1EPNS_12NotationImplE
                0x000000000003c740                _ZN11xercesc_2_812DOM_NotationC2EPNS_12NotationImplE
                0x000000000003c750                _ZN11xercesc_2_812DOM_NotationC2Ev
                0x000000000003c750                _ZN11xercesc_2_812DOM_NotationC1Ev
                0x000000000003c760                _ZN11xercesc_2_812DOM_NotationC1ERKS0_
                0x000000000003c760                _ZN11xercesc_2_812DOM_NotationC2ERKS0_
 *fill*         0x000000000003c765        0xb 90909090
 .text          0x000000000003c770     0x3b0b LINUX/depdom/DOMParser.o
                0x000000000003c770                _ZNK11xercesc_2_89DOMParser12getValidatorEv
                0x000000000003c780                _ZNK11xercesc_2_89DOMParser15getDoNamespacesEv
                0x000000000003c790                _ZNK11xercesc_2_89DOMParser24getExitOnFirstFatalErrorEv
                0x000000000003c7a0                _ZNK11xercesc_2_89DOMParser28getValidationConstraintFatalEv
                0x000000000003c7b0                _ZNK11xercesc_2_89DOMParser19getValidationSchemeEv
                0x000000000003c7d0                _ZNK11xercesc_2_89DOMParser11getDoSchemaEv
                0x000000000003c7e0                _ZNK11xercesc_2_89DOMParser31getValidationSchemaFullCheckingEv
                0x000000000003c7f0                _ZNK11xercesc_2_89DOMParser29getIdentityConstraintCheckingEv
                0x000000000003c800                _ZNK11xercesc_2_89DOMParser13getErrorCountEv
                0x000000000003c810                _ZNK11xercesc_2_89DOMParser25getExternalSchemaLocationEv
                0x000000000003c820                _ZNK11xercesc_2_89DOMParser36getExternalNoNamespaceSchemaLocationEv
                0x000000000003c830                _ZNK11xercesc_2_89DOMParser25isCachingGrammarFromParseEv
                0x000000000003c840                _ZNK11xercesc_2_89DOMParser27isUsingCachedGrammarInParseEv
                0x000000000003c850                _ZN11xercesc_2_89DOMParser14getRootGrammarEv
                0x000000000003c860                _ZNK11xercesc_2_89DOMParser18getCalculateSrcOfsEv
                0x000000000003c870                _ZNK11xercesc_2_89DOMParser24getStandardUriConformantEv
                0x000000000003c880                _ZN11xercesc_2_89DOMParser15setDoNamespacesEb
                0x000000000003c890                _ZN11xercesc_2_89DOMParser15setErrorHandlerEPNS_12ErrorHandlerE
                0x000000000003c8d0                _ZN11xercesc_2_89DOMParser14setPSVIHandlerEPNS_11PSVIHandlerE
                0x000000000003c900                _ZN11xercesc_2_89DOMParser17setEntityResolverEPNS_14EntityResolverE
                0x000000000003c950                _ZN11xercesc_2_89DOMParser20setXMLEntityResolverEPNS_17XMLEntityResolverE
                0x000000000003c9a0                _ZN11xercesc_2_89DOMParser24setExitOnFirstFatalErrorEb
                0x000000000003c9b0                _ZN11xercesc_2_89DOMParser28setValidationConstraintFatalEb
                0x000000000003c9c0                _ZN11xercesc_2_89DOMParser19setValidationSchemeENS0_10ValSchemesE
                0x000000000003ca20                _ZN11xercesc_2_89DOMParser11setDoSchemaEb
                0x000000000003ca30                _ZN11xercesc_2_89DOMParser31setValidationSchemaFullCheckingEb
                0x000000000003ca40                _ZN11xercesc_2_89DOMParser29setIdentityConstraintCheckingEb
                0x000000000003ca50                _ZN11xercesc_2_89DOMParser21cacheGrammarFromParseEb
                0x000000000003ca70                _ZN11xercesc_2_89DOMParser23useCachedGrammarInParseEb
                0x000000000003ca90                _ZN11xercesc_2_89DOMParser18setCalculateSrcOfsEb
                0x000000000003caa0                _ZN11xercesc_2_89DOMParser24setStandardUriConformantEb
                0x000000000003cab0                _ZN11xercesc_2_89DOMParser9parseNextERNS_13XMLPScanTokenE
                0x000000000003cac0                _ZThn8_N11xercesc_2_89DOMParser11resetErrorsEv
                0x000000000003cad0                _ZN11xercesc_2_89DOMParser11resetErrorsEv
                0x000000000003cae0                _ZThn16_N11xercesc_2_89DOMParser13resolveEntityEPKtS2_S2_
                0x000000000003caf0                _ZN11xercesc_2_89DOMParser13resolveEntityEPKtS2_S2_
                0x000000000003cb10                _ZThn16_N11xercesc_2_89DOMParser13resolveEntityEPNS_21XMLResourceIdentifierE
                0x000000000003cb20                _ZN11xercesc_2_89DOMParser13resolveEntityEPNS_21XMLResourceIdentifierE
                0x000000000003cb60                _ZNK11xercesc_2_89DOMParser15getDoValidationEv
                0x000000000003cb70                _ZN11xercesc_2_89DOMParser15setDoValidationEb
                0x000000000003cbb0                _ZThn24_N11xercesc_2_89DOMParser12endIntSubsetEv
                0x000000000003cbc0                _ZN11xercesc_2_89DOMParser12endIntSubsetEv
                0x000000000003cbd0                _ZThn24_N11xercesc_2_89DOMParser12endExtSubsetEv
                0x000000000003cbe0                _ZN11xercesc_2_89DOMParser12endExtSubsetEv
                0x000000000003cbf0                _ZThn24_N11xercesc_2_89DOMParser12resetDocTypeEv
                0x000000000003cc00                _ZN11xercesc_2_89DOMParser12resetDocTypeEv
                0x000000000003cc10                _ZThn24_N11xercesc_2_89DOMParser12startAttListERKNS_14DTDElementDeclE
                0x000000000003cc20                _ZN11xercesc_2_89DOMParser12startAttListERKNS_14DTDElementDeclE
                0x000000000003cc30                _ZThn24_N11xercesc_2_89DOMParser14startIntSubsetEv
                0x000000000003cc40                _ZN11xercesc_2_89DOMParser14startIntSubsetEv
                0x000000000003cc50                _ZThn24_N11xercesc_2_89DOMParser14startExtSubsetEv
                0x000000000003cc60                _ZN11xercesc_2_89DOMParser14startExtSubsetEv
                0x000000000003cc70                _ZThn24_N11xercesc_2_89DOMParser8TextDeclEPKtS2_
                0x000000000003cc80                _ZN11xercesc_2_89DOMParser8TextDeclEPKtS2_
                0x000000000003cc90                _ZN11xercesc_2_89DOMParser22resetCachedGrammarPoolEv
                0x000000000003cca0                _ZN11xercesc_2_89DOMParser11loadGrammarEPKtsb
                0x000000000003cdb0                _ZThn24_N11xercesc_2_89DOMParser12notationDeclERKNS_15XMLNotationDeclEb
                0x000000000003cdc0                _ZN11xercesc_2_89DOMParser12notationDeclERKNS_15XMLNotationDeclEb
                0x000000000003cee0                _ZThn24_N11xercesc_2_89DOMParser17doctypeWhitespaceEPKtj
                0x000000000003cef0                _ZN11xercesc_2_89DOMParser17doctypeWhitespaceEPKtj
                0x000000000003cf50                _ZThn24_N11xercesc_2_89DOMParser9doctypePIEPKtS2_
                0x000000000003cf60                _ZN11xercesc_2_89DOMParser9doctypePIEPKtS2_
                0x000000000003d050                _ZThn24_N11xercesc_2_89DOMParser14doctypeCommentEPKt
                0x000000000003d060                _ZN11xercesc_2_89DOMParser14doctypeCommentEPKt
                0x000000000003d140                _ZThn24_N11xercesc_2_89DOMParser10entityDeclERKNS_13DTDEntityDeclEbb
                0x000000000003d150                _ZN11xercesc_2_89DOMParser10entityDeclERKNS_13DTDEntityDeclEbb
                0x000000000003d530                _ZThn24_N11xercesc_2_89DOMParser11elementDeclERKNS_14DTDElementDeclEb
                0x000000000003d540                _ZN11xercesc_2_89DOMParser11elementDeclERKNS_14DTDElementDeclEb
                0x000000000003d640                _ZThn24_N11xercesc_2_89DOMParser6attDefERKNS_14DTDElementDeclERKNS_9DTDAttDefEb
                0x000000000003d650                _ZN11xercesc_2_89DOMParser6attDefERKNS_14DTDElementDeclERKNS_9DTDAttDefEb
                0x000000000003da80                _ZN11xercesc_2_89DOMParser25setExternalSchemaLocationEPKt
                0x000000000003db40                _ZThn24_N11xercesc_2_89DOMParser11doctypeDeclERKNS_14DTDElementDeclEPKtS5_bb
                0x000000000003db50                _ZN11xercesc_2_89DOMParser11doctypeDeclERKNS_14DTDElementDeclEPKtS5_bb
                0x000000000003dca0                _ZN11xercesc_2_89DOMParser7XMLDeclEPKtS2_S2_S2_
                0x000000000003ddc0                _ZN11xercesc_2_89DOMParser20startEntityReferenceERKNS_13XMLEntityDeclE
                0x000000000003dec0                _ZN11xercesc_2_89DOMParser11endDocumentEv
                0x000000000003ded0                _ZN11xercesc_2_89DOMParser13startDocumentEv
                0x000000000003df20                _ZN11xercesc_2_89DOMParser19ignorableWhitespaceEPKtjb
                0x000000000003e070                _ZN11xercesc_2_89DOMParser5docPIEPKtS2_
                0x000000000003e160                _ZN11xercesc_2_89DOMParser10docCommentEPKt
                0x000000000003e210                _ZN11xercesc_2_89DOMParser13docCharactersEPKtjb
                0x000000000003e400                _ZThn8_N11xercesc_2_89DOMParser5errorEjPKtNS_16XMLErrorReporter8ErrTypesES2_S2_S2_ll
                0x000000000003e410                _ZN11xercesc_2_89DOMParser5errorEjPKtNS_16XMLErrorReporter8ErrTypesES2_S2_S2_ll
                0x000000000003e510                _ZN11xercesc_2_89DOMParser10useScannerEPKt
                0x000000000003e570                _ZN11xercesc_2_89DOMParser36setExternalNoNamespaceSchemaLocationEPKc
                0x000000000003e5c0                _ZN11xercesc_2_89DOMParser25setExternalSchemaLocationEPKc
                0x000000000003e610                _ZNK11xercesc_2_89DOMParser12getSrcOffsetEv
                0x000000000003e630                _ZNK11xercesc_2_89DOMParser10getURITextEj
                0x000000000003e640                _ZN11xercesc_2_89DOMParser10getGrammarEPKt
                0x000000000003e650                _ZN11xercesc_2_89DOMParser5resetEv
                0x000000000003e6d0                _ZN11xercesc_2_89DOMParser13resetDocumentEv
                0x000000000003e6e0                _ZN11xercesc_2_89DOMParser10parseResetERNS_13XMLPScanTokenE
                0x000000000003e700                _ZN11xercesc_2_89DOMParser7cleanUpEv
                0x000000000003e7f0                _ZN11xercesc_2_89DOMParserD2Ev
                0x000000000003e7f0                _ZN11xercesc_2_89DOMParserD1Ev
                0x000000000003e900                _ZThn24_N11xercesc_2_89DOMParserD1Ev
                0x000000000003e910                _ZThn16_N11xercesc_2_89DOMParserD1Ev
                0x000000000003e920                _ZThn8_N11xercesc_2_89DOMParserD1Ev
                0x000000000003e930                _ZThn24_N11xercesc_2_89DOMParserD0Ev
                0x000000000003e940                _ZThn16_N11xercesc_2_89DOMParserD0Ev
                0x000000000003e950                _ZThn8_N11xercesc_2_89DOMParserD0Ev
                0x000000000003e960                _ZN11xercesc_2_89DOMParserD0Ev
                0x000000000003e980                _ZN11xercesc_2_89DOMParser10initializeEv
                0x000000000003ea80                _ZN11xercesc_2_89DOMParserC1EPNS_12XMLValidatorEPNS_13MemoryManagerEPNS_14XMLGrammarPoolE
                0x000000000003ea80                _ZN11xercesc_2_89DOMParserC2EPNS_12XMLValidatorEPNS_13MemoryManagerEPNS_14XMLGrammarPoolE
                0x000000000003ec50                _ZThn24_N11xercesc_2_89DOMParser10endAttListERKNS_14DTDElementDeclE
                0x000000000003ec60                _ZN11xercesc_2_89DOMParser10endAttListERKNS_14DTDElementDeclE
                0x000000000003f1e0                _ZN11xercesc_2_89DOMParser36setExternalNoNamespaceSchemaLocationEPKt
                0x000000000003f2a0                _ZN11xercesc_2_89DOMParser12startElementERKNS_14XMLElementDeclEjPKtRKNS_11RefVectorOfINS_7XMLAttrEEEjbb
                0x000000000003f9c0                _ZN11xercesc_2_89DOMParser10endElementERKNS_14XMLElementDeclEjbPKt
                0x000000000003fa40                _ZN11xercesc_2_89DOMParser18endEntityReferenceERKNS_13XMLEntityDeclE
                0x000000000003fb50                _ZN11xercesc_2_89DOMParser10parseFirstERKNS_11InputSourceERNS_13XMLPScanTokenE
                0x000000000003fc00                _ZN11xercesc_2_89DOMParser10parseFirstEPKcRNS_13XMLPScanTokenE
                0x000000000003fcb0                _ZN11xercesc_2_89DOMParser10parseFirstEPKtRNS_13XMLPScanTokenE
                0x000000000003fd60                _ZN11xercesc_2_89DOMParser5parseEPKc
                0x000000000003fe60                _ZN11xercesc_2_89DOMParser5parseEPKt
                0x000000000003ff60                _ZN11xercesc_2_89DOMParser11loadGrammarEPKcsb
                0x0000000000040070                _ZN11xercesc_2_89DOMParser11loadGrammarERKNS_11InputSourceEsb
                0x0000000000040180                _ZN11xercesc_2_89DOMParser5parseERKNS_11InputSourceE
 *fill*         0x000000000004027b        0x5 90909090
 .text._ZN11xercesc_2_816XMLErrorReporterD2Ev
                0x0000000000040280        0xf LINUX/depdom/DOMParser.o
                0x0000000000040280                _ZN11xercesc_2_816XMLErrorReporterD1Ev
                0x0000000000040280                _ZN11xercesc_2_816XMLErrorReporterD2Ev
 *fill*         0x000000000004028f        0x1 90909090
 .text._ZN11xercesc_2_813XSerializableD2Ev
                0x0000000000040290        0xf LINUX/depdom/DOMParser.o
                0x0000000000040290                _ZN11xercesc_2_813XSerializableD2Ev
                0x0000000000040290                _ZN11xercesc_2_813XSerializableD1Ev
 *fill*         0x000000000004029f        0x1 90909090
 .text._ZN11xercesc_2_810XMLRefInfoD2Ev
                0x00000000000402a0       0x46 LINUX/depdom/DOMParser.o
                0x00000000000402a0                _ZN11xercesc_2_810XMLRefInfoD1Ev
                0x00000000000402a0                _ZN11xercesc_2_810XMLRefInfoD2Ev
 *fill*         0x00000000000402e6        0xa 90909090
 .text._ZNK11xercesc_2_819EmptyStackException7getTypeEv
                0x00000000000402f0        0x8 LINUX/depdom/DOMParser.o
                0x00000000000402f0                _ZNK11xercesc_2_819EmptyStackException7getTypeEv
 *fill*         0x00000000000402f8        0x8 90909090
 .text._ZNK11xercesc_2_813DTDEntityDecl22getDeclaredInIntSubsetEv
                0x0000000000040300        0x5 LINUX/depdom/DOMParser.o
                0x0000000000040300                _ZNK11xercesc_2_813DTDEntityDecl22getDeclaredInIntSubsetEv
 *fill*         0x0000000000040305        0xb 90909090
 .text._ZNK11xercesc_2_813DTDEntityDecl14getIsParameterEv
                0x0000000000040310        0x5 LINUX/depdom/DOMParser.o
                0x0000000000040310                _ZNK11xercesc_2_813DTDEntityDecl14getIsParameterEv
 *fill*         0x0000000000040315        0xb 90909090
 .text._ZNK11xercesc_2_813DTDEntityDecl16getIsSpecialCharEv
                0x0000000000040320        0x5 LINUX/depdom/DOMParser.o
                0x0000000000040320                _ZNK11xercesc_2_813DTDEntityDecl16getIsSpecialCharEv
 *fill*         0x0000000000040325        0xb 90909090
 .text._ZN11xercesc_2_813XMLAttDefListD2Ev
                0x0000000000040330        0xf LINUX/depdom/DOMParser.o
                0x0000000000040330                _ZN11xercesc_2_813XMLAttDefListD2Ev
                0x0000000000040330                _ZN11xercesc_2_813XMLAttDefListD1Ev
 *fill*         0x000000000004033f        0x1 90909090
 .text._ZNK11xercesc_2_811IOException7getTypeEv
                0x0000000000040340        0x8 LINUX/depdom/DOMParser.o
                0x0000000000040340                _ZNK11xercesc_2_811IOException7getTypeEv
 *fill*         0x0000000000040348        0x8 90909090
 .text._ZN11xercesc_2_818XMLDocumentHandlerD2Ev
                0x0000000000040350        0xf LINUX/depdom/DOMParser.o
                0x0000000000040350                _ZN11xercesc_2_818XMLDocumentHandlerD2Ev
                0x0000000000040350                _ZN11xercesc_2_818XMLDocumentHandlerD1Ev
 *fill*         0x000000000004035f        0x1 90909090
 .text._ZN11xercesc_2_818XMLDocumentHandler15elementTypeInfoEPKtS2_
                0x0000000000040360        0x2 LINUX/depdom/DOMParser.o
                0x0000000000040360                _ZN11xercesc_2_818XMLDocumentHandler15elementTypeInfoEPKtS2_
 *fill*         0x0000000000040362        0xe 90909090
 .text._ZN11xercesc_2_816XMLEntityHandlerD2Ev
                0x0000000000040370        0xf LINUX/depdom/DOMParser.o
                0x0000000000040370                _ZN11xercesc_2_816XMLEntityHandlerD1Ev
                0x0000000000040370                _ZN11xercesc_2_816XMLEntityHandlerD2Ev
 *fill*         0x000000000004037f        0x1 90909090
 .text._ZN11xercesc_2_814DocTypeHandlerD2Ev
                0x0000000000040380        0xf LINUX/depdom/DOMParser.o
                0x0000000000040380                _ZN11xercesc_2_814DocTypeHandlerD1Ev
                0x0000000000040380                _ZN11xercesc_2_814DocTypeHandlerD2Ev
 *fill*         0x000000000004038f        0x1 90909090
 .text._ZN11xercesc_2_89DOMParser14endInputSourceERKNS_11InputSourceE
                0x0000000000040390       0x12 LINUX/depdom/DOMParser.o
                0x0000000000040390                _ZThn16_N11xercesc_2_89DOMParser14endInputSourceERKNS_11InputSourceE
                0x00000000000403a0                _ZN11xercesc_2_89DOMParser14endInputSourceERKNS_11InputSourceE
 *fill*         0x00000000000403a2        0xe 90909090
 .text._ZN11xercesc_2_89DOMParser14expandSystemIdEPKtRNS_9XMLBufferE
                0x00000000000403b0       0x13 LINUX/depdom/DOMParser.o
                0x00000000000403b0                _ZThn16_N11xercesc_2_89DOMParser14expandSystemIdEPKtRNS_9XMLBufferE
                0x00000000000403c0                _ZN11xercesc_2_89DOMParser14expandSystemIdEPKtRNS_9XMLBufferE
 *fill*         0x00000000000403c3        0xd 90909090
 .text._ZN11xercesc_2_89DOMParser13resetEntitiesEv
                0x00000000000403d0       0x12 LINUX/depdom/DOMParser.o
                0x00000000000403d0                _ZThn16_N11xercesc_2_89DOMParser13resetEntitiesEv
                0x00000000000403e0                _ZN11xercesc_2_89DOMParser13resetEntitiesEv
 *fill*         0x00000000000403e2        0xe 90909090
 .text._ZN11xercesc_2_89DOMParser16startInputSourceERKNS_11InputSourceE
                0x00000000000403f0       0x12 LINUX/depdom/DOMParser.o
                0x00000000000403f0                _ZThn16_N11xercesc_2_89DOMParser16startInputSourceERKNS_11InputSourceE
                0x0000000000040400                _ZN11xercesc_2_89DOMParser16startInputSourceERKNS_11InputSourceE
 *fill*         0x0000000000040402        0xe 90909090
 .text._ZN11xercesc_2_815ContentSpecNodeD2Ev
                0x0000000000040410       0x71 LINUX/depdom/DOMParser.o
                0x0000000000040410                _ZN11xercesc_2_815ContentSpecNodeD1Ev
                0x0000000000040410                _ZN11xercesc_2_815ContentSpecNodeD2Ev
 *fill*         0x0000000000040481        0xf 90909090
 .text._ZN11xercesc_2_813XSerializableD0Ev
                0x0000000000040490       0x13 LINUX/depdom/DOMParser.o
                0x0000000000040490                _ZN11xercesc_2_813XSerializableD0Ev
 *fill*         0x00000000000404a3        0xd 90909090
 .text._ZN11xercesc_2_814DocTypeHandlerD0Ev
                0x00000000000404b0       0x13 LINUX/depdom/DOMParser.o
                0x00000000000404b0                _ZN11xercesc_2_814DocTypeHandlerD0Ev
 *fill*         0x00000000000404c3        0xd 90909090
 .text._ZN11xercesc_2_816XMLEntityHandlerD0Ev
                0x00000000000404d0       0x13 LINUX/depdom/DOMParser.o
                0x00000000000404d0                _ZN11xercesc_2_816XMLEntityHandlerD0Ev
 *fill*         0x00000000000404e3        0xd 90909090
 .text._ZN11xercesc_2_816XMLErrorReporterD0Ev
                0x00000000000404f0       0x13 LINUX/depdom/DOMParser.o
                0x00000000000404f0                _ZN11xercesc_2_816XMLErrorReporterD0Ev
 *fill*         0x0000000000040503        0xd 90909090
 .text._ZN11xercesc_2_818XMLDocumentHandlerD0Ev
                0x0000000000040510       0x13 LINUX/depdom/DOMParser.o
                0x0000000000040510                _ZN11xercesc_2_818XMLDocumentHandlerD0Ev
 *fill*         0x0000000000040523        0xd 90909090
 .text._ZN11xercesc_2_813XMLAttDefListD0Ev
                0x0000000000040530       0x13 LINUX/depdom/DOMParser.o
                0x0000000000040530                _ZN11xercesc_2_813XMLAttDefListD0Ev
 *fill*         0x0000000000040543        0xd 90909090
 .text._ZN11xercesc_2_813DTDEntityDeclD2Ev
                0x0000000000040550       0x13 LINUX/depdom/DOMParser.o
                0x0000000000040550                _ZN11xercesc_2_813DTDEntityDeclD2Ev
                0x0000000000040550                _ZN11xercesc_2_813DTDEntityDeclD1Ev
 *fill*         0x0000000000040563        0xd 90909090
 .text._ZN11xercesc_2_811IOExceptionD2Ev
                0x0000000000040570       0x13 LINUX/depdom/DOMParser.o
                0x0000000000040570                _ZN11xercesc_2_811IOExceptionD1Ev
                0x0000000000040570                _ZN11xercesc_2_811IOExceptionD2Ev
 *fill*         0x0000000000040583        0xd 90909090
 .text._ZN11xercesc_2_819EmptyStackExceptionD2Ev
                0x0000000000040590       0x13 LINUX/depdom/DOMParser.o
                0x0000000000040590                _ZN11xercesc_2_819EmptyStackExceptionD1Ev
                0x0000000000040590                _ZN11xercesc_2_819EmptyStackExceptionD2Ev
 *fill*         0x00000000000405a3        0xd 90909090
 .text._ZNK11xercesc_2_811IOException9duplicateEv
                0x00000000000405b0       0x6c LINUX/depdom/DOMParser.o
                0x00000000000405b0                _ZNK11xercesc_2_811IOException9duplicateEv
 *fill*         0x000000000004061c        0x4 90909090
 .text._ZNK11xercesc_2_819EmptyStackException9duplicateEv
                0x0000000000040620       0x6c LINUX/depdom/DOMParser.o
                0x0000000000040620                _ZNK11xercesc_2_819EmptyStackException9duplicateEv
 *fill*         0x000000000004068c        0x4 90909090
 .text._ZN11xercesc_2_812ValueStackOfINS_8DOM_NodeEE4pushERKS1_
                0x0000000000040690       0xb6 LINUX/depdom/DOMParser.o
                0x0000000000040690                _ZN11xercesc_2_812ValueStackOfINS_8DOM_NodeEE4pushERKS1_
 *fill*         0x0000000000040746        0xa 90909090
 .text._ZN11xercesc_2_813ValueVectorOfINS_8DOM_NodeEE15removeElementAtEj
                0x0000000000040750       0xc6 LINUX/depdom/DOMParser.o
                0x0000000000040750                _ZN11xercesc_2_813ValueVectorOfINS_8DOM_NodeEE15removeElementAtEj
 *fill*         0x0000000000040816        0xa 90909090
 .text._ZN11xercesc_2_811IOExceptionD0Ev
                0x0000000000040820       0x20 LINUX/depdom/DOMParser.o
                0x0000000000040820                _ZN11xercesc_2_811IOExceptionD0Ev
 .text._ZN11xercesc_2_819EmptyStackExceptionD0Ev
                0x0000000000040840       0x20 LINUX/depdom/DOMParser.o
                0x0000000000040840                _ZN11xercesc_2_819EmptyStackExceptionD0Ev
 .text._ZN11xercesc_2_813DTDEntityDeclD0Ev
                0x0000000000040860       0x20 LINUX/depdom/DOMParser.o
                0x0000000000040860                _ZN11xercesc_2_813DTDEntityDeclD0Ev
 .text._ZN11xercesc_2_810XMLRefInfoD0Ev
                0x0000000000040880       0x4d LINUX/depdom/DOMParser.o
                0x0000000000040880                _ZN11xercesc_2_810XMLRefInfoD0Ev
 *fill*         0x00000000000408cd        0x3 90909090
 .text._ZN11xercesc_2_815ContentSpecNodeD0Ev
                0x00000000000408d0       0x78 LINUX/depdom/DOMParser.o
                0x00000000000408d0                _ZN11xercesc_2_815ContentSpecNodeD0Ev
 *fill*         0x0000000000040948        0x8 90909090
 .text._ZNK11xercesc_2_815BaseRefVectorOfINS_7XMLAttrEE9elementAtEj
                0x0000000000040950       0xa6 LINUX/depdom/DOMParser.o
                0x0000000000040950                _ZNK11xercesc_2_815BaseRefVectorOfINS_7XMLAttrEE9elementAtEj
 *fill*         0x00000000000409f6        0xa 90909090
 .text._ZN11xercesc_2_812ValueStackOfINS_8DOM_NodeEE3popEv
                0x0000000000040a00      0x152 LINUX/depdom/DOMParser.o
                0x0000000000040a00                _ZN11xercesc_2_812ValueStackOfINS_8DOM_NodeEE3popEv
 *fill*         0x0000000000040b52        0xe 90909090
 .text          0x0000000000040b60      0x185 LINUX/depdom/DOM_ProcessingInstruction.o
                0x0000000000040b60                _ZN11xercesc_2_825DOM_ProcessingInstruction7setDataERKNS_9DOMStringE
                0x0000000000040bd0                _ZNK11xercesc_2_825DOM_ProcessingInstruction7getDataEv
                0x0000000000040c30                _ZNK11xercesc_2_825DOM_ProcessingInstruction9getTargetEv
                0x0000000000040c90                _ZN11xercesc_2_825DOM_ProcessingInstructionaSEPKNS_11DOM_NullPtrE
                0x0000000000040ca0                _ZN11xercesc_2_825DOM_ProcessingInstructionaSERKS0_
                0x0000000000040cb0                _ZN11xercesc_2_825DOM_ProcessingInstructionD2Ev
                0x0000000000040cb0                _ZN11xercesc_2_825DOM_ProcessingInstructionD1Ev
                0x0000000000040cc0                _ZN11xercesc_2_825DOM_ProcessingInstructionC1EPNS_25ProcessingInstructionImplE
                0x0000000000040cc0                _ZN11xercesc_2_825DOM_ProcessingInstructionC2EPNS_25ProcessingInstructionImplE
                0x0000000000040cd0                _ZN11xercesc_2_825DOM_ProcessingInstructionC1Ev
                0x0000000000040cd0                _ZN11xercesc_2_825DOM_ProcessingInstructionC2Ev
                0x0000000000040ce0                _ZN11xercesc_2_825DOM_ProcessingInstructionC2ERKS0_
                0x0000000000040ce0                _ZN11xercesc_2_825DOM_ProcessingInstructionC1ERKS0_
 *fill*         0x0000000000040ce5        0xb 90909090
 .text          0x0000000000040cf0       0xe0 LINUX/depdom/DOM_RangeException.o
                0x0000000000040cf0                _ZN11xercesc_2_818DOM_RangeExceptionD1Ev
                0x0000000000040cf0                _ZN11xercesc_2_818DOM_RangeExceptionD2Ev
                0x0000000000040d10                _ZN11xercesc_2_818DOM_RangeExceptionD0Ev
                0x0000000000040d30                _ZN11xercesc_2_818DOM_RangeExceptionC1ERKS0_
                0x0000000000040d30                _ZN11xercesc_2_818DOM_RangeExceptionC2ERKS0_
                0x0000000000040d70                _ZN11xercesc_2_818DOM_RangeExceptionC1ENS0_18RangeExceptionCodeERKNS_9DOMStringE
                0x0000000000040d70                _ZN11xercesc_2_818DOM_RangeExceptionC2ENS0_18RangeExceptionCodeERKNS_9DOMStringE
                0x0000000000040db0                _ZN11xercesc_2_818DOM_RangeExceptionC1Ev
                0x0000000000040db0                _ZN11xercesc_2_818DOM_RangeExceptionC2Ev
 .text          0x0000000000040dd0      0x2dc LINUX/depdom/DOM_Range.o
                0x0000000000040dd0                _ZN11xercesc_2_89DOM_RangeC1Ev
                0x0000000000040dd0                _ZN11xercesc_2_89DOM_RangeC2Ev
                0x0000000000040de0                _ZNK11xercesc_2_89DOM_RangeneERKS0_
                0x0000000000040df0                _ZNK11xercesc_2_89DOM_RangeeqERKS0_
                0x0000000000040e00                _ZNK11xercesc_2_89DOM_RangeneEPKNS_11DOM_NullPtrE
                0x0000000000040e10                _ZNK11xercesc_2_89DOM_RangeeqEPKNS_11DOM_NullPtrE
                0x0000000000040e20                _ZN11xercesc_2_89DOM_Range6detachEv
                0x0000000000040e30                _ZNK11xercesc_2_89DOM_Range8toStringEv
                0x0000000000040e50                _ZN11xercesc_2_89DOM_Range16surroundContentsERNS_8DOM_NodeE
                0x0000000000040e60                _ZN11xercesc_2_89DOM_Range10insertNodeERNS_8DOM_NodeE
                0x0000000000040e70                _ZNK11xercesc_2_89DOM_Range13cloneContentsEv
                0x0000000000040e90                _ZN11xercesc_2_89DOM_Range15extractContentsEv
                0x0000000000040eb0                _ZN11xercesc_2_89DOM_Range14deleteContentsEv
                0x0000000000040ec0                _ZNK11xercesc_2_89DOM_Range21compareBoundaryPointsENS0_10CompareHowERKS0_
                0x0000000000040ed0                _ZN11xercesc_2_89DOM_Range18selectNodeContentsERKNS_8DOM_NodeE
                0x0000000000040ee0                _ZN11xercesc_2_89DOM_Range10selectNodeERKNS_8DOM_NodeE
                0x0000000000040ef0                _ZNK11xercesc_2_89DOM_Range12getCollapsedEv
                0x0000000000040f00                _ZN11xercesc_2_89DOM_Range8collapseEb
                0x0000000000040f10                _ZN11xercesc_2_89DOM_Range11setEndAfterERKNS_8DOM_NodeE
                0x0000000000040f20                _ZN11xercesc_2_89DOM_Range12setEndBeforeERKNS_8DOM_NodeE
                0x0000000000040f30                _ZN11xercesc_2_89DOM_Range13setStartAfterERKNS_8DOM_NodeE
                0x0000000000040f40                _ZN11xercesc_2_89DOM_Range14setStartBeforeERKNS_8DOM_NodeE
                0x0000000000040f50                _ZN11xercesc_2_89DOM_Range6setEndERKNS_8DOM_NodeEj
                0x0000000000040f60                _ZN11xercesc_2_89DOM_Range8setStartERKNS_8DOM_NodeEj
                0x0000000000040f70                _ZNK11xercesc_2_89DOM_Range26getCommonAncestorContainerEv
                0x0000000000040f90                _ZNK11xercesc_2_89DOM_Range12getEndOffsetEv
                0x0000000000040fa0                _ZNK11xercesc_2_89DOM_Range15getEndContainerEv
                0x0000000000040fc0                _ZNK11xercesc_2_89DOM_Range14getStartOffsetEv
                0x0000000000040fd0                _ZNK11xercesc_2_89DOM_Range17getStartContainerEv
                0x0000000000040ff0                _ZN11xercesc_2_89DOM_RangeaSEPKNS_11DOM_NullPtrE
                0x0000000000041010                _ZN11xercesc_2_89DOM_RangeD2Ev
                0x0000000000041010                _ZN11xercesc_2_89DOM_RangeD1Ev
                0x0000000000041030                _ZN11xercesc_2_89DOM_RangeaSERKS0_
                0x0000000000041070                _ZN11xercesc_2_89DOM_RangeC1ERKS0_
                0x0000000000041070                _ZN11xercesc_2_89DOM_RangeC2ERKS0_
                0x0000000000041080                _ZN11xercesc_2_89DOM_RangeC2EPNS_9RangeImplE
                0x0000000000041080                _ZN11xercesc_2_89DOM_RangeC1EPNS_9RangeImplE
                0x0000000000041090                _ZNK11xercesc_2_89DOM_Range10cloneRangeEv
 *fill*         0x00000000000410ac        0x4 90909090
 .text          0x00000000000410b0     0x1ace LINUX/depdom/DOMString.o
                0x00000000000410b0                _ZN11xercesc_2_89DOMStringC1Ev
                0x00000000000410b0                _ZN11xercesc_2_89DOMStringC2Ev
                0x00000000000410c0                _ZN11xercesc_2_89DOMStringC2Ei
                0x00000000000410c0                _ZN11xercesc_2_89DOMStringC1Ei
                0x00000000000410d0                _ZNK11xercesc_2_89DOMStringeqERKS0_
                0x00000000000410e0                _ZNK11xercesc_2_89DOMStringneERKS0_
                0x00000000000410f0                _ZNK11xercesc_2_89DOMStringeqEPKNS_11DOM_NullPtrE
                0x0000000000041100                _ZNK11xercesc_2_89DOMStringneEPKNS_11DOM_NullPtrE
                0x0000000000041110                _ZNK11xercesc_2_89DOMString6charAtEj
                0x0000000000041140                _ZNK11xercesc_2_89DOMString6equalsERKS0_
                0x00000000000411c0                _ZNK11xercesc_2_89DOMString6equalsEPKt
                0x0000000000041260                _ZNK11xercesc_2_89DOMString6lengthEv
                0x0000000000041270                _ZNK11xercesc_2_89DOMString9rawBufferEv
                0x0000000000041290                _ZNK11xercesc_2_89DOMString13compareStringERKS0_
                0x0000000000041330                _ZNK11xercesc_2_89DOMStringltERKS0_
                0x00000000000413a0                _ZN11xercesc_2_89DOMStringC1ERKS0_
                0x00000000000413a0                _ZN11xercesc_2_89DOMStringC2ERKS0_
                0x00000000000413c0                _ZN11xercesc_2_813DOMStringData14allocateBufferEj
                0x0000000000041460                _ZN11xercesc_2_815DOMStringHandlenwEm
                0x00000000000415c0                _ZN11xercesc_2_815DOMStringHandle17cloneStringHandleEv
                0x0000000000041610                _ZN11xercesc_2_815DOMStringHandle21createNewStringHandleEj
                0x0000000000041670                _ZN11xercesc_2_89DOMString7reserveEj
                0x0000000000041690                _ZN11xercesc_2_89DOMStringC1EPKtj
                0x0000000000041690                _ZN11xercesc_2_89DOMStringC2EPKtj
                0x0000000000041700                _ZN11xercesc_2_89DOMStringC1EPKt
                0x0000000000041700                _ZN11xercesc_2_89DOMStringC2EPKt
                0x0000000000041790                _ZN11xercesc_2_815getDomConverterEv
                0x0000000000041820                _ZNK11xercesc_2_89DOMString9transcodeEPNS_13MemoryManagerE
                0x0000000000041940                _ZNK11xercesc_2_89DOMString5printEv
                0x00000000000419c0                _ZNK11xercesc_2_89DOMString7printlnEv
                0x00000000000419f0                _ZNK11xercesc_2_89DOMString9transcodeEv
                0x0000000000041af0                _ZN11xercesc_2_89DOMString10appendDataEt
                0x0000000000041be0                _ZN11xercesc_2_89DOMStringpLEt
                0x0000000000041c00                _ZN11xercesc_2_815DOMStringHandledlEPv
                0x0000000000041d40                _ZN11xercesc_2_89DOMStringC1EPKc
                0x0000000000041d40                _ZN11xercesc_2_89DOMStringC2EPKc
                0x0000000000041f10                _ZN11xercesc_2_89DOMString9transcodeEPKc
                0x0000000000041f20                _ZN11xercesc_2_89DOMStringaSEPNS_11DOM_NullPtrE
                0x0000000000041fd0                _ZN11xercesc_2_89DOMStringD1Ev
                0x0000000000041fd0                _ZN11xercesc_2_89DOMStringD2Ev
                0x0000000000042080                _ZN11xercesc_2_89DOMString10deleteDataEjj
                0x0000000000042270                _ZNK11xercesc_2_89DOMString5cloneEv
                0x00000000000422c0                _ZN11xercesc_2_8plERKNS_9DOMStringEt
                0x0000000000042310                _ZNK11xercesc_2_89DOMString13substringDataEjj
                0x0000000000042470                _ZN11xercesc_2_89DOMStringaSERKS0_
                0x0000000000042540                _ZN11xercesc_2_89DOMString10insertDataEjRKS0_
                0x00000000000427f0                _ZN11xercesc_2_89DOMString10appendDataERKS0_
                0x00000000000429b0                _ZN11xercesc_2_8plERKNS_9DOMStringES2_
                0x0000000000042a00                _ZN11xercesc_2_89DOMStringpLERKS0_
                0x0000000000042a10                _ZN11xercesc_2_8plEtRKNS_9DOMStringE
                0x0000000000042a80                _ZN11xercesc_2_8plEPKtRKNS_9DOMStringE
                0x0000000000042ad0                _ZN11xercesc_2_89DOMString10appendDataEPKt
                0x0000000000042b20                _ZN11xercesc_2_8plERKNS_9DOMStringEPKt
                0x0000000000042b70                _ZN11xercesc_2_89DOMStringpLEPKt
 *fill*         0x0000000000042b7e        0x2 90909090
 .text          0x0000000000042b80       0x95 LINUX/depdom/DOM_Text.o
                0x0000000000042b80                _ZN11xercesc_2_88DOM_Text21isIgnorableWhitespaceEv
                0x0000000000042b90                _ZN11xercesc_2_88DOM_TextaSEPKNS_11DOM_NullPtrE
                0x0000000000042ba0                _ZN11xercesc_2_88DOM_TextaSERKS0_
                0x0000000000042bb0                _ZN11xercesc_2_88DOM_TextD2Ev
                0x0000000000042bb0                _ZN11xercesc_2_88DOM_TextD1Ev
                0x0000000000042bc0                _ZN11xercesc_2_88DOM_TextC2EPNS_8TextImplE
                0x0000000000042bc0                _ZN11xercesc_2_88DOM_TextC1EPNS_8TextImplE
                0x0000000000042bd0                _ZN11xercesc_2_88DOM_Text9splitTextEj
                0x0000000000042c00                _ZN11xercesc_2_88DOM_TextC1Ev
                0x0000000000042c00                _ZN11xercesc_2_88DOM_TextC2Ev
                0x0000000000042c10                _ZN11xercesc_2_88DOM_TextC2ERKS0_
                0x0000000000042c10                _ZN11xercesc_2_88DOM_TextC1ERKS0_
 *fill*         0x0000000000042c15        0xb 90909090
 .text          0x0000000000042c20      0x27b LINUX/depdom/DOM_TreeWalker.o
                0x0000000000042c20                _ZN11xercesc_2_814DOM_TreeWalkerC1Ev
                0x0000000000042c20                _ZN11xercesc_2_814DOM_TreeWalkerC2Ev
                0x0000000000042c30                _ZNK11xercesc_2_814DOM_TreeWalkerneERKS0_
                0x0000000000042c40                _ZNK11xercesc_2_814DOM_TreeWalkereqERKS0_
                0x0000000000042c50                _ZNK11xercesc_2_814DOM_TreeWalkerneEPKNS_11DOM_NullPtrE
                0x0000000000042c60                _ZNK11xercesc_2_814DOM_TreeWalkereqEPKNS_11DOM_NullPtrE
                0x0000000000042c70                _ZN11xercesc_2_814DOM_TreeWalker8nextNodeEv
                0x0000000000042c90                _ZN11xercesc_2_814DOM_TreeWalker12previousNodeEv
                0x0000000000042cb0                _ZN11xercesc_2_814DOM_TreeWalker11nextSiblingEv
                0x0000000000042cd0                _ZN11xercesc_2_814DOM_TreeWalker15previousSiblingEv
                0x0000000000042cf0                _ZN11xercesc_2_814DOM_TreeWalker9lastChildEv
                0x0000000000042d10                _ZN11xercesc_2_814DOM_TreeWalker10firstChildEv
                0x0000000000042d30                _ZN11xercesc_2_814DOM_TreeWalker10parentNodeEv
                0x0000000000042d50                _ZN11xercesc_2_814DOM_TreeWalker14setCurrentNodeENS_8DOM_NodeE
                0x0000000000042da0                _ZN11xercesc_2_814DOM_TreeWalker14getCurrentNodeEv
                0x0000000000042dc0                _ZN11xercesc_2_814DOM_TreeWalker9getFilterEv
                0x0000000000042dd0                _ZN11xercesc_2_814DOM_TreeWalker13getWhatToShowEv
                0x0000000000042de0                _ZN11xercesc_2_814DOM_TreeWalker7getRootEv
                0x0000000000042e00                _ZN11xercesc_2_814DOM_TreeWalkerD2Ev
                0x0000000000042e00                _ZN11xercesc_2_814DOM_TreeWalkerD1Ev
                0x0000000000042e20                _ZN11xercesc_2_814DOM_TreeWalkeraSEPKNS_11DOM_NullPtrE
                0x0000000000042e40                _ZN11xercesc_2_814DOM_TreeWalkeraSERKS0_
                0x0000000000042e80                _ZN11xercesc_2_814DOM_TreeWalkerC1ERKS0_
                0x0000000000042e80                _ZN11xercesc_2_814DOM_TreeWalkerC2ERKS0_
                0x0000000000042e90                _ZN11xercesc_2_814DOM_TreeWalkerC2EPNS_14TreeWalkerImplE
                0x0000000000042e90                _ZN11xercesc_2_814DOM_TreeWalkerC1EPNS_14TreeWalkerImplE
 *fill*         0x0000000000042e9b        0x5 90909090
 .text          0x0000000000042ea0       0xb5 LINUX/depdom/DOM_XMLDecl.o
                0x0000000000042ea0                _ZNK11xercesc_2_811DOM_XMLDecl10getVersionEv
                0x0000000000042ec0                _ZNK11xercesc_2_811DOM_XMLDecl11getEncodingEv
                0x0000000000042ee0                _ZNK11xercesc_2_811DOM_XMLDecl13getStandaloneEv
                0x0000000000042f00                _ZN11xercesc_2_811DOM_XMLDeclaSEPKNS_11DOM_NullPtrE
                0x0000000000042f10                _ZN11xercesc_2_811DOM_XMLDeclaSERKS0_
                0x0000000000042f20                _ZN11xercesc_2_811DOM_XMLDeclD2Ev
                0x0000000000042f20                _ZN11xercesc_2_811DOM_XMLDeclD1Ev
                0x0000000000042f30                _ZN11xercesc_2_811DOM_XMLDeclC2EPNS_11XMLDeclImplE
                0x0000000000042f30                _ZN11xercesc_2_811DOM_XMLDeclC1EPNS_11XMLDeclImplE
                0x0000000000042f40                _ZN11xercesc_2_811DOM_XMLDeclC1Ev
                0x0000000000042f40                _ZN11xercesc_2_811DOM_XMLDeclC2Ev
                0x0000000000042f50                _ZN11xercesc_2_811DOM_XMLDeclC1ERKS0_
                0x0000000000042f50                _ZN11xercesc_2_811DOM_XMLDeclC2ERKS0_
 *fill*         0x0000000000042f55        0xb 90909090
 .text          0x0000000000042f60      0x3ec LINUX/depdom/DStringPool.o
                0x0000000000042f60                _ZN11xercesc_2_811DStringPoolC1EiPNS_13MemoryManagerE
                0x0000000000042f60                _ZN11xercesc_2_811DStringPoolC2EiPNS_13MemoryManagerE
                0x0000000000042fc0                _ZN11xercesc_2_811DStringPoolD1Ev
                0x0000000000042fc0                _ZN11xercesc_2_811DStringPoolD2Ev
                0x0000000000043040                _ZN11xercesc_2_811DStringPool15getStaticStringEPKcPPNS_9DOMStringEPFvvERNS_18XMLRegisterCleanupE
                0x0000000000043100                _ZN11xercesc_2_811DStringPool15getPooledStringERKNS_9DOMStringE
                0x0000000000043210                _ZN11xercesc_2_811DStringPool15getPooledStringEPKt
 *fill*         0x000000000004334c        0x4 90909090
 .text          0x0000000000043350      0x2a9 LINUX/depdom/ElementDefinitionImpl.o
                0x0000000000043350                _ZN11xercesc_2_821ElementDefinitionImpl11getNodeTypeEv
                0x0000000000043360                _ZN11xercesc_2_821ElementDefinitionImpl13getAttributesEv
                0x0000000000043370                _ZN11xercesc_2_821ElementDefinitionImpl11getNodeNameEv
                0x0000000000043390                _ZN11xercesc_2_821ElementDefinitionImplD1Ev
                0x0000000000043390                _ZN11xercesc_2_821ElementDefinitionImplD2Ev
                0x00000000000433e0                _ZN11xercesc_2_821ElementDefinitionImplD0Ev
                0x0000000000043400                _ZN11xercesc_2_821ElementDefinitionImplC1ERKS0_b
                0x0000000000043400                _ZN11xercesc_2_821ElementDefinitionImplC2ERKS0_b
                0x00000000000434d0                _ZN11xercesc_2_821ElementDefinitionImpl9cloneNodeEb
                0x0000000000043550                _ZN11xercesc_2_821ElementDefinitionImplC2EPNS_12DocumentImplERKNS_9DOMStringE
                0x0000000000043550                _ZN11xercesc_2_821ElementDefinitionImplC1EPNS_12DocumentImplERKNS_9DOMStringE
 *fill*         0x00000000000435f9        0x7 90909090
 .text          0x0000000000043600     0x1aff LINUX/depdom/ElementImpl.o
                0x0000000000043600                _ZN11xercesc_2_811ElementImpl11getNodeTypeEv
                0x0000000000043610                _ZN11xercesc_2_811ElementImpl16getAttributeNodeERKNS_9DOMStringE
                0x0000000000043630                _ZN11xercesc_2_811ElementImpl13getAttributesEv
                0x0000000000043640                _ZN11xercesc_2_811ElementImpl13isElementImplEv
                0x0000000000043650                _ZN11xercesc_2_811ElementImpl18getAttributeNodeNSERKNS_9DOMStringES3_
                0x0000000000043670                _ZN11xercesc_2_811ElementImpl13hasAttributesEv
                0x0000000000043690                _ZN11xercesc_2_811ElementImpl12hasAttributeERKNS_9DOMStringE
                0x00000000000436b0                _ZN11xercesc_2_811ElementImpl14hasAttributeNSERKNS_9DOMStringES3_
                0x00000000000436d0                _ZN11xercesc_2_811ElementImpl12NNM_cloneMapEPNS_8NodeImplE
                0x0000000000043710                _ZN11xercesc_2_811ElementImpl17NNM_findNamePointERKNS_9DOMStringE
                0x0000000000043780                _ZN11xercesc_2_811ElementImpl13NNM_getLengthEv
                0x00000000000437c0                _ZN11xercesc_2_811ElementImpl16NNM_getNamedItemERKNS_9DOMStringE
                0x0000000000043820                _ZN11xercesc_2_811ElementImpl8NNM_itemEj
                0x0000000000043880                _ZN11xercesc_2_811ElementImpl13NNM_removeAllEv
                0x00000000000438c0                _ZN11xercesc_2_811ElementImpl15NNM_setReadOnlyEbb
                0x0000000000043940                _ZN11xercesc_2_811ElementImpl17NNM_findNamePointERKNS_9DOMStringES3_
                0x00000000000439c0                _ZN11xercesc_2_811ElementImpl18NNM_getNamedItemNSERKNS_9DOMStringES3_
                0x0000000000043a40                _ZN11xercesc_2_811ElementImpl20NNM_setOwnerDocumentEPNS_12DocumentImplE
                0x0000000000043ab0                _ZN11xercesc_2_811ElementImpl17reinitElementImplEv
                0x0000000000043ae0                _ZN11xercesc_2_811ElementImpl22setupDefaultAttributesEv
                0x0000000000043bc0                _ZN11xercesc_2_811ElementImpl20getDefaultAttributesEv
                0x0000000000043cb0                _ZN11xercesc_2_811ElementImpl14getAttributeNSERKNS_9DOMStringES3_
                0x0000000000043d00                _ZN11xercesc_2_811ElementImpl21NNM_removeNamedItemNSERKNS_9DOMStringES3_
                0x0000000000043dd0                _ZN11xercesc_2_811ElementImpl19NNM_removeNamedItemERKNS_9DOMStringE
                0x0000000000043ea0                _ZN11xercesc_2_811ElementImpl18setAttributeNodeNSEPNS_8AttrImplE
                0x00000000000440f0                _ZN11xercesc_2_811ElementImpl16setAttributeNodeEPNS_8AttrImplE
                0x00000000000442f0                _ZN11xercesc_2_811ElementImpl12setAttributeERKNS_9DOMStringES3_
                0x0000000000044480                _ZN11xercesc_2_811ElementImpl19removeAttributeNodeEPNS_8AttrImplE
                0x0000000000044650                _ZN11xercesc_2_811ElementImpl18NNM_setNamedItemNSEPNS_8NodeImplE
                0x0000000000044700                _ZN11xercesc_2_811ElementImpl16NNM_setNamedItemEPNS_8NodeImplE
                0x00000000000447c0                _ZN11xercesc_2_811ElementImpl22getElementsByTagNameNSERKNS_9DOMStringES3_
                0x0000000000044850                _ZN11xercesc_2_811ElementImpl17removeAttributeNSERKNS_9DOMStringES3_
                0x0000000000044970                _ZN11xercesc_2_811ElementImpl14setAttributeNSERKNS_9DOMStringES3_S3_
                0x0000000000044b00                _ZN11xercesc_2_811ElementImpl15removeAttributeERKNS_9DOMStringE
                0x0000000000044c10                _ZN11xercesc_2_811ElementImpl11setReadOnlyEbb
                0x0000000000044c70                _ZN11xercesc_2_811ElementImpl10getTagNameEv
                0x0000000000044c90                _ZN11xercesc_2_811ElementImpl11getNodeNameEv
                0x0000000000044cb0                _ZN11xercesc_2_811ElementImpl20getElementsByTagNameERKNS_9DOMStringE
                0x0000000000044d30                _ZN11xercesc_2_811ElementImpl12getAttributeERKNS_9DOMStringE
                0x0000000000044da0                _ZN11xercesc_2_811ElementImpl16setOwnerDocumentEPNS_12DocumentImplE
                0x0000000000044df0                _ZN11xercesc_2_811ElementImplD1Ev
                0x0000000000044df0                _ZN11xercesc_2_811ElementImplD2Ev
                0x0000000000044e80                _ZN11xercesc_2_811ElementImplD0Ev
                0x0000000000044ea0                _ZN11xercesc_2_811ElementImplC2ERKS0_b
                0x0000000000044ea0                _ZN11xercesc_2_811ElementImplC1ERKS0_b
                0x0000000000044fc0                _ZN11xercesc_2_811ElementImpl9cloneNodeEb
                0x0000000000045040                _ZN11xercesc_2_811ElementImplC2EPNS_12DocumentImplERKNS_9DOMStringE
                0x0000000000045040                _ZN11xercesc_2_811ElementImplC1EPNS_12DocumentImplERKNS_9DOMStringE
 *fill*         0x00000000000450ff        0x1 90909090
 .text          0x0000000000045100      0xa12 LINUX/depdom/ElementNSImpl.o
                0x0000000000045100                _ZN11xercesc_2_813ElementNSImpl9setPrefixERKNS_9DOMStringE
                0x0000000000045580                _ZN11xercesc_2_813ElementNSImpl12getLocalNameEv
                0x00000000000455a0                _ZN11xercesc_2_813ElementNSImpl15getNamespaceURIEv
                0x00000000000455c0                _ZN11xercesc_2_813ElementNSImpl9getPrefixEv
                0x0000000000045620                _ZN11xercesc_2_813ElementNSImplC1ERKS0_b
                0x0000000000045620                _ZN11xercesc_2_813ElementNSImplC2ERKS0_b
                0x0000000000045720                _ZN11xercesc_2_813ElementNSImpl9cloneNodeEb
                0x00000000000457a0                _ZN11xercesc_2_813ElementNSImplC2EPNS_12DocumentImplERKNS_9DOMStringE
                0x00000000000457a0                _ZN11xercesc_2_813ElementNSImplC1EPNS_12DocumentImplERKNS_9DOMStringE
                0x0000000000045850                _ZN11xercesc_2_813ElementNSImplC2EPNS_12DocumentImplERKNS_9DOMStringES5_
                0x0000000000045850                _ZN11xercesc_2_813ElementNSImplC1EPNS_12DocumentImplERKNS_9DOMStringES5_
 *fill*         0x0000000000045b12        0xe 90909090
 .text._ZN11xercesc_2_813ElementNSImplD2Ev
                0x0000000000045b20       0x68 LINUX/depdom/ElementNSImpl.o
                0x0000000000045b20                _ZN11xercesc_2_813ElementNSImplD2Ev
                0x0000000000045b20                _ZN11xercesc_2_813ElementNSImplD1Ev
 *fill*         0x0000000000045b88        0x8 90909090
 .text._ZN11xercesc_2_813ElementNSImplD0Ev
                0x0000000000045b90       0x70 LINUX/depdom/ElementNSImpl.o
                0x0000000000045b90                _ZN11xercesc_2_813ElementNSImplD0Ev
 .text          0x0000000000045c00      0x597 LINUX/depdom/EntityImpl.o
                0x0000000000045c00                _ZN11xercesc_2_810EntityImpl11getNodeTypeEv
                0x0000000000045c10                _ZN11xercesc_2_810EntityImpl12setEntityRefEPNS_19EntityReferenceImplE
                0x0000000000045c90                _ZN11xercesc_2_810EntityImpl11setSystemIdERKNS_9DOMStringE
                0x0000000000045ca0                _ZN11xercesc_2_810EntityImpl11setPublicIdERKNS_9DOMStringE
                0x0000000000045cb0                _ZN11xercesc_2_810EntityImpl15setNotationNameERKNS_9DOMStringE
                0x0000000000045cc0                _ZN11xercesc_2_810EntityImpl11getSystemIdEv
                0x0000000000045ce0                _ZN11xercesc_2_810EntityImpl11getPublicIdEv
                0x0000000000045d00                _ZN11xercesc_2_810EntityImpl15getNotationNameEv
                0x0000000000045d20                _ZN11xercesc_2_810EntityImpl11getNodeNameEv
                0x0000000000045d40                _ZN11xercesc_2_810EntityImplD1Ev
                0x0000000000045d40                _ZN11xercesc_2_810EntityImplD2Ev
                0x0000000000045df0                _ZN11xercesc_2_810EntityImplD0Ev
                0x0000000000045e10                _ZN11xercesc_2_810EntityImplC2ERKS0_b
                0x0000000000045e10                _ZN11xercesc_2_810EntityImplC1ERKS0_b
                0x0000000000045fe0                _ZN11xercesc_2_810EntityImpl9cloneNodeEb
                0x0000000000046060                _ZN11xercesc_2_810EntityImplC2EPNS_12DocumentImplERKNS_9DOMStringE
                0x0000000000046060                _ZN11xercesc_2_810EntityImplC1EPNS_12DocumentImplERKNS_9DOMStringE
 *fill*         0x0000000000046197        0x9 90909090
 .text          0x00000000000461a0      0x447 LINUX/depdom/EntityReferenceImpl.o
                0x00000000000461a0                _ZN11xercesc_2_819EntityReferenceImpl11getNodeTypeEv
                0x00000000000461b0                _ZN11xercesc_2_819EntityReferenceImpl17isEntityReferenceEv
                0x00000000000461c0                _ZN11xercesc_2_819EntityReferenceImpl11setReadOnlyEbb
                0x0000000000046290                _ZN11xercesc_2_819EntityReferenceImpl11getNodeNameEv
                0x00000000000462b0                _ZN11xercesc_2_819EntityReferenceImplD1Ev
                0x00000000000462b0                _ZN11xercesc_2_819EntityReferenceImplD2Ev
                0x0000000000046320                _ZN11xercesc_2_819EntityReferenceImplD0Ev
                0x0000000000046340                _ZN11xercesc_2_819EntityReferenceImplC2ERKS0_b
                0x0000000000046340                _ZN11xercesc_2_819EntityReferenceImplC1ERKS0_b
                0x0000000000046430                _ZN11xercesc_2_819EntityReferenceImpl9cloneNodeEb
                0x00000000000464b0                _ZN11xercesc_2_819EntityReferenceImplC1EPNS_12DocumentImplERKNS_9DOMStringE
                0x00000000000464b0                _ZN11xercesc_2_819EntityReferenceImplC2EPNS_12DocumentImplERKNS_9DOMStringE
 *fill*         0x00000000000465e7        0x9 90909090
 .text          0x00000000000465f0     0x124a LINUX/depdom/NamedNodeMapImpl.o
                0x00000000000465f0                _ZN11xercesc_2_816NamedNodeMapImplC2EPNS_8NodeImplE
                0x00000000000465f0                _ZN11xercesc_2_816NamedNodeMapImplC1EPNS_8NodeImplE
                0x0000000000046630                _ZN11xercesc_2_816NamedNodeMapImpl6addRefEPS0_
                0x0000000000046640                _ZN11xercesc_2_816NamedNodeMapImpl9removeRefEPS0_
                0x0000000000046670                _ZN11xercesc_2_816NamedNodeMapImpl16setOwnerDocumentEPNS_12DocumentImplE
                0x00000000000466c0                _ZN11xercesc_2_816NamedNodeMapImpl9getLengthEv
                0x00000000000466e0                _ZN11xercesc_2_816NamedNodeMapImplD2Ev
                0x00000000000466e0                _ZN11xercesc_2_816NamedNodeMapImplD1Ev
                0x0000000000046740                _ZN11xercesc_2_816NamedNodeMapImplD0Ev
                0x0000000000046760                _ZN11xercesc_2_816NamedNodeMapImpl14getNamedItemNSERKNS_9DOMStringES3_
                0x0000000000046790                _ZN11xercesc_2_816NamedNodeMapImpl11setReadOnlyEbb
                0x0000000000046800                _ZN11xercesc_2_816NamedNodeMapImpl4itemEj
                0x0000000000046840                _ZN11xercesc_2_816NamedNodeMapImpl12getNamedItemERKNS_9DOMStringE
                0x0000000000046870                _ZN11xercesc_2_816NamedNodeMapImpl12cloneContentEPS0_
                0x00000000000469d0                _ZN11xercesc_2_816NamedNodeMapImpl8cloneMapEPNS_8NodeImplE
                0x0000000000046b30                _ZN11xercesc_2_816NamedNodeMapImpl17removeNamedItemNSERKNS_9DOMStringES3_
                0x0000000000046c90                _ZN11xercesc_2_816NamedNodeMapImpl15removeNamedItemERKNS_9DOMStringE
                0x0000000000046df0                _ZN11xercesc_2_816NamedNodeMapImpl14setNamedItemNSEPNS_8NodeImplE
                0x0000000000047170                _ZN11xercesc_2_816NamedNodeMapImpl12setNamedItemEPNS_8NodeImplE
                0x0000000000047490                _ZN11xercesc_2_816NamedNodeMapImpl13findNamePointERKNS_9DOMStringES3_
                0x00000000000476b0                _ZN11xercesc_2_816NamedNodeMapImpl13findNamePointERKNS_9DOMStringE
                0x0000000000047790                _ZN11xercesc_2_816NamedNodeMapImpl9removeAllEv
 *fill*         0x000000000004783a        0x6 90909090
 .text          0x0000000000047840      0x608 LINUX/depdom/NodeIDMap.o
                0x0000000000047840                _ZN11xercesc_2_89NodeIDMapD2Ev
                0x0000000000047840                _ZN11xercesc_2_89NodeIDMapD1Ev
                0x0000000000047870                _ZN11xercesc_2_89NodeIDMapC2EiPNS_13MemoryManagerE
                0x0000000000047870                _ZN11xercesc_2_89NodeIDMapC1EiPNS_13MemoryManagerE
                0x0000000000047a00                _ZN11xercesc_2_89NodeIDMapD0Ev
                0x0000000000047a20                _ZN11xercesc_2_89NodeIDMap4findERKNS_9DOMStringE
                0x0000000000047b10                _ZN11xercesc_2_89NodeIDMap6removeEPNS_8AttrImplE
                0x0000000000047be0                _ZN11xercesc_2_89NodeIDMap9growTableEv
                0x0000000000047d70                _ZN11xercesc_2_89NodeIDMap3addEPNS_8AttrImplE
 *fill*         0x0000000000047e48        0x8 90909090
 .text._ZNK11xercesc_2_816RuntimeException7getTypeEv
                0x0000000000047e50        0x8 LINUX/depdom/NodeIDMap.o
                0x0000000000047e50                _ZNK11xercesc_2_816RuntimeException7getTypeEv
 *fill*         0x0000000000047e58        0x8 90909090
 .text._ZN11xercesc_2_816RuntimeExceptionD2Ev
                0x0000000000047e60       0x13 LINUX/depdom/NodeIDMap.o
                0x0000000000047e60                _ZN11xercesc_2_816RuntimeExceptionD1Ev
                0x0000000000047e60                _ZN11xercesc_2_816RuntimeExceptionD2Ev
 *fill*         0x0000000000047e73        0xd 90909090
 .text._ZNK11xercesc_2_816RuntimeException9duplicateEv
                0x0000000000047e80       0x6c LINUX/depdom/NodeIDMap.o
                0x0000000000047e80                _ZNK11xercesc_2_816RuntimeException9duplicateEv
 *fill*         0x0000000000047eec        0x4 90909090
 .text._ZN11xercesc_2_816RuntimeExceptionD0Ev
                0x0000000000047ef0       0x20 LINUX/depdom/NodeIDMap.o
                0x0000000000047ef0                _ZN11xercesc_2_816RuntimeExceptionD0Ev
 .text          0x0000000000047f10      0xf5b LINUX/depdom/NodeImpl.o
                0x0000000000047f10                _ZN11xercesc_2_88NodeImpl10isAttrImplEv
                0x0000000000047f20                _ZN11xercesc_2_88NodeImpl18isCDATASectionImplEv
                0x0000000000047f30                _ZN11xercesc_2_88NodeImpl22isDocumentFragmentImplEv
                0x0000000000047f40                _ZN11xercesc_2_88NodeImpl14isDocumentImplEv
                0x0000000000047f50                _ZN11xercesc_2_88NodeImpl18isDocumentTypeImplEv
                0x0000000000047f60                _ZN11xercesc_2_88NodeImpl13isElementImplEv
                0x0000000000047f70                _ZN11xercesc_2_88NodeImpl17isEntityReferenceEv
                0x0000000000047f80                _ZN11xercesc_2_88NodeImpl10isTextImplEv
                0x0000000000047f90                _ZN11xercesc_2_88NodeImpl7changedEv
                0x0000000000047fb0                _ZN11xercesc_2_88NodeImpl7changesEv
                0x0000000000047fd0                _ZN11xercesc_2_88NodeImpl11appendChildEPS0_
                0x0000000000047fe0                _ZN11xercesc_2_88NodeImpl13getAttributesEv
                0x0000000000047ff0                _ZN11xercesc_2_88NodeImpl13getChildNodesEv
                0x0000000000048000                _ZN11xercesc_2_88NodeImpl13getFirstChildEv
                0x0000000000048010                _ZN11xercesc_2_88NodeImpl12getLastChildEv
                0x0000000000048020                _ZN11xercesc_2_88NodeImpl9getLengthEv
                0x0000000000048030                _ZN11xercesc_2_88NodeImpl14getNextSiblingEv
                0x0000000000048040                _ZN11xercesc_2_88NodeImpl16getOwnerDocumentEv
                0x0000000000048060                _ZN11xercesc_2_88NodeImpl11getDocumentEv
                0x0000000000048080                _ZN11xercesc_2_88NodeImpl16setOwnerDocumentEPNS_12DocumentImplE
                0x0000000000048090                _ZN11xercesc_2_88NodeImpl13getParentNodeEv
                0x00000000000480a0                _ZN11xercesc_2_88NodeImpl18getPreviousSiblingEv
                0x00000000000480b0                _ZN11xercesc_2_88NodeImpl11getUserDataEv
                0x00000000000480e0                _ZN11xercesc_2_88NodeImpl13hasChildNodesEv
                0x00000000000480f0                _ZN11xercesc_2_88NodeImpl4itemEj
                0x0000000000048100                _ZN11xercesc_2_88NodeImpl12setNodeValueERKNS_9DOMStringE
                0x0000000000048110                _ZN11xercesc_2_88NodeImpl11setReadOnlyEbb
                0x0000000000048140                _ZN11xercesc_2_88NodeImpl11setUserDataEPv
                0x00000000000481b0                _ZN11xercesc_2_88NodeImpl9normalizeEv
                0x00000000000481c0                _ZN11xercesc_2_88NodeImpl13hasAttributesEv
                0x00000000000481e0                _ZN11xercesc_2_88NodeImpl14reinitNodeImplEv
                0x0000000000048280                _ZN11xercesc_2_88NodeImpl15getXmlURIStringEv
                0x00000000000482c0                _ZN11xercesc_2_88NodeImpl12getXmlStringEv
                0x0000000000048300                _ZN11xercesc_2_88NodeImpl17getXmlnsURIStringEv
                0x0000000000048340                _ZN11xercesc_2_88NodeImpl14getXmlnsStringEv
                0x0000000000048380                _ZN11xercesc_2_88NodeImpl12getLocalNameEv
                0x0000000000048390                _ZN11xercesc_2_88NodeImpl9getPrefixEv
                0x00000000000483a0                _ZN11xercesc_2_88NodeImpl15getNamespaceURIEv
                0x00000000000483b0                _ZN11xercesc_2_88NodeImpl12getNodeValueEv
                0x00000000000483c0                _ZN11xercesc_2_88NodeImpl9setPrefixERKNS_9DOMStringE
                0x0000000000048450                _ZN11xercesc_2_88NodeImpl12replaceChildEPS0_S1_
                0x00000000000484e0                _ZN11xercesc_2_88NodeImpl11removeChildEPS0_
                0x0000000000048570                _ZN11xercesc_2_88NodeImpl12insertBeforeEPS0_S1_
                0x0000000000048600                _ZN11xercesc_2_88NodeImpl9mapPrefixERKNS_9DOMStringES3_s
                0x00000000000489a0                _ZN11xercesc_2_88NodeImpl11isSupportedERKNS_9DOMStringES3_
                0x00000000000489e0                _ZN11xercesc_2_88NodeImpl8toStringEv
                0x0000000000048be0                _ZN11xercesc_2_88NodeImpl10referencedEv
                0x0000000000048c00                _ZN11xercesc_2_88NodeImpl8deleteIfEPS0_
                0x0000000000048cd0                _ZN11xercesc_2_88NodeImpl12unreferencedEv
                0x0000000000048d10                _ZN11xercesc_2_88NodeImplD2Ev
                0x0000000000048d10                _ZN11xercesc_2_88NodeImplD1Ev
                0x0000000000048d70                _ZN11xercesc_2_88NodeImplD0Ev
                0x0000000000048d90                _ZN11xercesc_2_88NodeImplC2ERKS0_
                0x0000000000048d90                _ZN11xercesc_2_88NodeImplC1ERKS0_
                0x0000000000048e10                _ZN11xercesc_2_88NodeImplC2EPNS_12DocumentImplE
                0x0000000000048e10                _ZN11xercesc_2_88NodeImplC1EPNS_12DocumentImplE
 *fill*         0x0000000000048e6b        0x5 90909090
 .text          0x0000000000048e70     0x1225 LINUX/depdom/NodeIteratorImpl.o
                0x0000000000048e70                _ZN11xercesc_2_816NodeIteratorImpl6detachEv
                0x0000000000048e80                _ZN11xercesc_2_816NodeIteratorImpl13getWhatToShowEv
                0x0000000000048e90                _ZN11xercesc_2_816NodeIteratorImpl9getFilterEv
                0x0000000000048ea0                _ZN11xercesc_2_816NodeIteratorImpl25getExpandEntityReferencesEv
                0x0000000000048eb0                _ZN11xercesc_2_816NodeIteratorImpl12unreferencedEv
                0x0000000000048f60                _ZN11xercesc_2_816NodeIteratorImpl7getRootEv
                0x0000000000048f80                _ZN11xercesc_2_816NodeIteratorImplaSERKS0_
                0x0000000000048ff0                _ZN11xercesc_2_816NodeIteratorImpl12previousNodeENS_8DOM_NodeE
                0x0000000000049180                _ZN11xercesc_2_816NodeIteratorImpl17matchNodeOrParentENS_8DOM_NodeE
                0x0000000000049280                _ZN11xercesc_2_816NodeIteratorImpl8nextNodeENS_8DOM_NodeEb
                0x0000000000049570                _ZN11xercesc_2_816NodeIteratorImpl10removeNodeENS_8DOM_NodeE
                0x00000000000497f0                _ZN11xercesc_2_816NodeIteratorImpl10acceptNodeENS_8DOM_NodeE
                0x0000000000049920                _ZN11xercesc_2_816NodeIteratorImpl12previousNodeEv
                0x0000000000049b90                _ZN11xercesc_2_816NodeIteratorImpl8nextNodeEv
                0x0000000000049e20                _ZN11xercesc_2_816NodeIteratorImplC1ERKS0_
                0x0000000000049e20                _ZN11xercesc_2_816NodeIteratorImplC2ERKS0_
                0x0000000000049ed0                _ZN11xercesc_2_816NodeIteratorImplD2Ev
                0x0000000000049ed0                _ZN11xercesc_2_816NodeIteratorImplD1Ev
                0x0000000000049f40                _ZN11xercesc_2_816NodeIteratorImplD0Ev
                0x0000000000049f60                _ZN11xercesc_2_816NodeIteratorImplC2Ev
                0x0000000000049f60                _ZN11xercesc_2_816NodeIteratorImplC1Ev
                0x0000000000049fe0                _ZN11xercesc_2_816NodeIteratorImplC1ENS_8DOM_NodeEmPNS_14DOM_NodeFilterEb
                0x0000000000049fe0                _ZN11xercesc_2_816NodeIteratorImplC2ENS_8DOM_NodeEmPNS_14DOM_NodeFilterEb
 *fill*         0x000000000004a095        0xb 90909090
 .text._ZN11xercesc_2_815BaseRefVectorOfINS_16NodeIteratorImplEE9elementAtEj
                0x000000000004a0a0       0xa6 LINUX/depdom/NodeIteratorImpl.o
                0x000000000004a0a0                _ZN11xercesc_2_815BaseRefVectorOfINS_16NodeIteratorImplEE9elementAtEj
 *fill*         0x000000000004a146        0xa 90909090
 .text          0x000000000004a150       0x59 LINUX/depdom/NodeListImpl.o
                0x000000000004a150                _ZN11xercesc_2_812NodeListImplD1Ev
                0x000000000004a150                _ZN11xercesc_2_812NodeListImplD2Ev
                0x000000000004a170                _ZN11xercesc_2_812NodeListImplD0Ev
                0x000000000004a190                _ZN11xercesc_2_812NodeListImplC2Ev
                0x000000000004a190                _ZN11xercesc_2_812NodeListImplC1Ev
 *fill*         0x000000000004a1a9        0x7 90909090
 .text          0x000000000004a1b0      0x254 LINUX/depdom/NodeVector.o
                0x000000000004a1b0                _ZN11xercesc_2_810NodeVector4initEj
                0x000000000004a1f0                _ZN11xercesc_2_810NodeVectorC1EjPNS_13MemoryManagerE
                0x000000000004a1f0                _ZN11xercesc_2_810NodeVectorC2EjPNS_13MemoryManagerE
                0x000000000004a200                _ZN11xercesc_2_810NodeVectorC2EPNS_13MemoryManagerE
                0x000000000004a200                _ZN11xercesc_2_810NodeVectorC1EPNS_13MemoryManagerE
                0x000000000004a210                _ZN11xercesc_2_810NodeVectorD1Ev
                0x000000000004a210                _ZN11xercesc_2_810NodeVectorD2Ev
                0x000000000004a230                _ZN11xercesc_2_810NodeVector10checkSpaceEv
                0x000000000004a2d0                _ZN11xercesc_2_810NodeVector10addElementEPNS_8NodeImplE
                0x000000000004a310                _ZN11xercesc_2_810NodeVector9elementAtEj
                0x000000000004a330                _ZN11xercesc_2_810NodeVector11lastElementEv
                0x000000000004a350                _ZN11xercesc_2_810NodeVector15insertElementAtEPNS_8NodeImplEj
                0x000000000004a3a0                _ZN11xercesc_2_810NodeVector15removeElementAtEj
                0x000000000004a3e0                _ZN11xercesc_2_810NodeVector5resetEv
                0x000000000004a3f0                _ZN11xercesc_2_810NodeVector12setElementAtEPNS_8NodeImplEj
                0x000000000004a400                _ZN11xercesc_2_810NodeVector4sizeEv
 *fill*         0x000000000004a404        0xc 90909090
 .text          0x000000000004a410      0x517 LINUX/depdom/NotationImpl.o
                0x000000000004a410                _ZN11xercesc_2_812NotationImpl11getNodeTypeEv
                0x000000000004a420                _ZN11xercesc_2_812NotationImpl13getParentNodeEv
                0x000000000004a430                _ZN11xercesc_2_812NotationImpl11getSystemIdEv
                0x000000000004a450                _ZN11xercesc_2_812NotationImpl11getPublicIdEv
                0x000000000004a470                _ZN11xercesc_2_812NotationImpl11setSystemIdERKNS_9DOMStringE
                0x000000000004a550                _ZN11xercesc_2_812NotationImpl11setPublicIdERKNS_9DOMStringE
                0x000000000004a630                _ZN11xercesc_2_812NotationImpl11getNodeNameEv
                0x000000000004a650                _ZN11xercesc_2_812NotationImplD2Ev
                0x000000000004a650                _ZN11xercesc_2_812NotationImplD1Ev
                0x000000000004a6d0                _ZN11xercesc_2_812NotationImplD0Ev
                0x000000000004a6f0                _ZN11xercesc_2_812NotationImplC2ERKS0_b
                0x000000000004a6f0                _ZN11xercesc_2_812NotationImplC1ERKS0_b
                0x000000000004a7e0                _ZN11xercesc_2_812NotationImpl9cloneNodeEb
                0x000000000004a840                _ZN11xercesc_2_812NotationImplC2EPNS_12DocumentImplERKNS_9DOMStringE
                0x000000000004a840                _ZN11xercesc_2_812NotationImplC1EPNS_12DocumentImplERKNS_9DOMStringE
 *fill*         0x000000000004a927        0x9 90909090
 .text          0x000000000004a930      0xc98 LINUX/depdom/ParentNode.o
                0x000000000004a930                _ZN11xercesc_2_810ParentNode13cloneChildrenERKNS_8NodeImplE
                0x000000000004a990                _ZN11xercesc_2_810ParentNode16getOwnerDocumentEv
                0x000000000004a9a0                _ZN11xercesc_2_810ParentNode11getDocumentEv
                0x000000000004a9b0                _ZN11xercesc_2_810ParentNode16setOwnerDocumentEPNS_12DocumentImplE
                0x000000000004aa00                _ZN11xercesc_2_810ParentNode13getChildNodesEv
                0x000000000004aa10                _ZN11xercesc_2_810ParentNode13getFirstChildEv
                0x000000000004aa20                _ZN11xercesc_2_810ParentNode9lastChildEv
                0x000000000004aa40                _ZN11xercesc_2_810ParentNode12getLastChildEv
                0x000000000004aa50                _ZN11xercesc_2_810ParentNode9lastChildEPNS_9ChildNodeE
                0x000000000004aa60                _ZN11xercesc_2_810ParentNode9getLengthEv
                0x000000000004aac0                _ZN11xercesc_2_810ParentNode13hasChildNodesEv
                0x000000000004aad0                _ZN11xercesc_2_810ParentNode4itemEj
                0x000000000004ab90                _ZN11xercesc_2_810ParentNode12replaceChildEPNS_8NodeImplES2_
                0x000000000004abe0                _ZN11xercesc_2_810ParentNode9normalizeEv
                0x000000000004acc0                _ZN11xercesc_2_810ParentNode11setReadOnlyEbb
                0x000000000004ad30                _ZN11xercesc_2_810ParentNode11removeChildEPNS_8NodeImplE
                0x000000000004afe0                _ZN11xercesc_2_810ParentNode12insertBeforeEPNS_8NodeImplES2_
                0x000000000004b510                _ZN11xercesc_2_810ParentNodeC2ERKS0_
                0x000000000004b510                _ZN11xercesc_2_810ParentNodeC1ERKS0_
                0x000000000004b570                _ZN11xercesc_2_810ParentNodeC1EPNS_12DocumentImplE
                0x000000000004b570                _ZN11xercesc_2_810ParentNodeC2EPNS_12DocumentImplE
 *fill*         0x000000000004b5c8        0x8 90909090
 .text._ZN11xercesc_2_810ParentNodeD2Ev
                0x000000000004b5d0       0x13 LINUX/depdom/ParentNode.o
                0x000000000004b5d0                _ZN11xercesc_2_810ParentNodeD2Ev
                0x000000000004b5d0                _ZN11xercesc_2_810ParentNodeD1Ev
 *fill*         0x000000000004b5e3        0xd 90909090
 .text._ZN11xercesc_2_810ParentNodeD0Ev
                0x000000000004b5f0       0x20 LINUX/depdom/ParentNode.o
                0x000000000004b5f0                _ZN11xercesc_2_810ParentNodeD0Ev
 .text          0x000000000004b610      0x542 LINUX/depdom/ProcessingInstructionImpl.o
                0x000000000004b610                _ZN11xercesc_2_825ProcessingInstructionImpl11getNodeTypeEv
                0x000000000004b620                _ZN11xercesc_2_825ProcessingInstructionImpl9getTargetEv
                0x000000000004b640                _ZN11xercesc_2_825ProcessingInstructionImpl7getDataEv
                0x000000000004b660                _ZN11xercesc_2_825ProcessingInstructionImpl12getNodeValueEv
                0x000000000004b680                _ZN11xercesc_2_825ProcessingInstructionImpl7setDataERKNS_9DOMStringE
                0x000000000004b760                _ZN11xercesc_2_825ProcessingInstructionImpl12setNodeValueERKNS_9DOMStringE
                0x000000000004b840                _ZN11xercesc_2_825ProcessingInstructionImpl11getNodeNameEv
                0x000000000004b860                _ZN11xercesc_2_825ProcessingInstructionImplD2Ev
                0x000000000004b860                _ZN11xercesc_2_825ProcessingInstructionImplD1Ev
                0x000000000004b8d0                _ZN11xercesc_2_825ProcessingInstructionImplD0Ev
                0x000000000004b8f0                _ZN11xercesc_2_825ProcessingInstructionImplC1ERKS0_b
                0x000000000004b8f0                _ZN11xercesc_2_825ProcessingInstructionImplC2ERKS0_b
                0x000000000004b9f0                _ZN11xercesc_2_825ProcessingInstructionImpl9cloneNodeEb
                0x000000000004ba50                _ZN11xercesc_2_825ProcessingInstructionImplC2EPNS_12DocumentImplERKNS_9DOMStringES5_
                0x000000000004ba50                _ZN11xercesc_2_825ProcessingInstructionImplC1EPNS_12DocumentImplERKNS_9DOMStringES5_
 *fill*         0x000000000004bb52        0xe 90909090
 .text          0x000000000004bb60     0x687c LINUX/depdom/RangeImpl.o
                0x000000000004bb60                _ZNK11xercesc_2_89RangeImpl14getStartOffsetEv
                0x000000000004bb70                _ZNK11xercesc_2_89RangeImpl12getEndOffsetEv
                0x000000000004bb80                _ZN11xercesc_2_89RangeImpl15updateSplitInfoEPNS_8TextImplES2_j
                0x000000000004bc80                _ZN11xercesc_2_89RangeImpl25updateRangeForDeletedTextERNS_8DOM_NodeEji
                0x000000000004bd70                _ZN11xercesc_2_89RangeImpl19receiveReplacedTextEPNS_8NodeImplE
                0x000000000004be20                _ZNK11xercesc_2_89RangeImpl20isLegalContainedNodeERKNS_8DOM_NodeE
                0x000000000004be70                _ZN11xercesc_2_89RangeImpl11removeChildERNS_8DOM_NodeES2_
                0x000000000004bef0                _ZNK11xercesc_2_89RangeImpl15getEndContainerEv
                0x000000000004bf10                _ZNK11xercesc_2_89RangeImpl17getStartContainerEv
                0x000000000004bf30                _ZN11xercesc_2_89RangeImpl8collapseEb
                0x000000000004c010                _ZN11xercesc_2_89RangeImpl6detachEv
                0x000000000004c100                _ZN11xercesc_2_89RangeImpl12setEndOffsetEj
                0x000000000004c1a0                _ZN11xercesc_2_89RangeImpl15setEndContainerERKNS_8DOM_NodeE
                0x000000000004c260                _ZN11xercesc_2_89RangeImpl14setStartOffsetEj
                0x000000000004c300                _ZN11xercesc_2_89RangeImpl17setStartContainerERKNS_8DOM_NodeE
                0x000000000004c3c0                _ZNK11xercesc_2_89RangeImpl12getCollapsedEv
                0x000000000004c4a0                _ZN11xercesc_2_89RangeImpl15getSelectedNodeENS_8DOM_NodeEi
                0x000000000004c5a0                _ZN11xercesc_2_89RangeImpl19recurseTreeAndCheckERNS_8DOM_NodeES2_
                0x000000000004c720                _ZN11xercesc_2_89RangeImpl13checkReadOnlyERNS_8DOM_NodeES2_jj
                0x000000000004c960                _ZNK11xercesc_2_89RangeImpl10checkIndexERKNS_8DOM_NodeEj
                0x000000000004cb60                _ZN11xercesc_2_89RangeImpl16traverseTextNodeENS_8DOM_NodeEbi
                0x000000000004ce20                _ZN11xercesc_2_89RangeImpl25traversePartiallySelectedENS_8DOM_NodeEi
                0x000000000004ce50                _ZN11xercesc_2_89RangeImpl21traverseFullySelectedENS_8DOM_NodeEi
                0x000000000004cfb0                _ZN11xercesc_2_89RangeImpl12traverseNodeENS_8DOM_NodeEbbi
                0x000000000004d0d0                _ZNK11xercesc_2_89RangeImpl8nextNodeERKNS_8DOM_NodeEb
                0x000000000004d320                _ZNK11xercesc_2_89RangeImpl21hasLegalRootContainerERKNS_8DOM_NodeE
                0x000000000004d430                _ZN11xercesc_2_89RangeImpl12isAncestorOfERKNS_8DOM_NodeES3_
                0x000000000004d4e0                _ZNK11xercesc_2_89RangeImpl19isValidAncestorTypeERKNS_8DOM_NodeE
                0x000000000004d5a0                _ZN11xercesc_2_89RangeImpl20traverseLeftBoundaryENS_8DOM_NodeEi
                0x000000000004da00                _ZNK11xercesc_2_89RangeImpl7indexOfERKNS_8DOM_NodeES3_
                0x000000000004daf0                _ZN11xercesc_2_89RangeImpl26updateRangeForInsertedNodeEPNS_8NodeImplE
                0x000000000004dc00                _ZN11xercesc_2_89RangeImpl25updateRangeForDeletedNodeEPNS_8NodeImplE
                0x000000000004de90                _ZN11xercesc_2_89RangeImpl21traverseRightBoundaryENS_8DOM_NodeEi
                0x000000000004e2f0                _ZN11xercesc_2_89RangeImpl21traverseSameContainerEi
                0x000000000004e670                _ZNK11xercesc_2_89RangeImpl12validateNodeERKNS_8DOM_NodeE
                0x000000000004e790                _ZN11xercesc_2_89RangeImpl11getDocumentEv
                0x000000000004e7b0                _ZNK11xercesc_2_89RangeImpl8toStringEv
                0x000000000004eda0                _ZN11xercesc_2_89RangeImpl10insertNodeERNS_8DOM_NodeE
                0x000000000004f330                _ZN11xercesc_2_89RangeImpl18selectNodeContentsERKNS_8DOM_NodeE
                0x000000000004f470                _ZN11xercesc_2_89RangeImpl10selectNodeERKNS_8DOM_NodeE
                0x000000000004f650                _ZN11xercesc_2_89RangeImplD1Ev
                0x000000000004f650                _ZN11xercesc_2_89RangeImplD2Ev
                0x000000000004f6e0                _ZN11xercesc_2_89RangeImplD0Ev
                0x000000000004f700                _ZN11xercesc_2_89RangeImplC1ENS_12DOM_DocumentE
                0x000000000004f700                _ZN11xercesc_2_89RangeImplC2ENS_12DOM_DocumentE
                0x000000000004f7e0                _ZN11xercesc_2_89RangeImplC1ERKS0_
                0x000000000004f7e0                _ZN11xercesc_2_89RangeImplC2ERKS0_
                0x000000000004f910                _ZNK11xercesc_2_89RangeImpl16commonAncestorOfERKNS_8DOM_NodeES3_
                0x000000000004fd20                _ZNK11xercesc_2_89RangeImpl26getCommonAncestorContainerEv
                0x000000000004fd40                _ZNK11xercesc_2_89RangeImpl21compareBoundaryPointsENS_9DOM_Range10CompareHowEPS0_
                0x00000000000502f0                _ZN11xercesc_2_89RangeImpl11setEndAfterERKNS_8DOM_NodeE
                0x00000000000505c0                _ZN11xercesc_2_89RangeImpl12setEndBeforeERKNS_8DOM_NodeE
                0x00000000000508b0                _ZN11xercesc_2_89RangeImpl28traverseCommonStartContainerENS_8DOM_NodeEi
                0x0000000000050b80                _ZN11xercesc_2_89RangeImpl13setStartAfterERKNS_8DOM_NodeE
                0x0000000000050e50                _ZN11xercesc_2_89RangeImpl23traverseCommonAncestorsENS_8DOM_NodeES1_i
                0x00000000000511c0                _ZN11xercesc_2_89RangeImpl26traverseCommonEndContainerENS_8DOM_NodeEi
                0x0000000000051420                _ZN11xercesc_2_89RangeImpl14setStartBeforeERKNS_8DOM_NodeE
                0x0000000000051710                _ZN11xercesc_2_89RangeImpl6setEndERKNS_8DOM_NodeEj
                0x0000000000051880                _ZN11xercesc_2_89RangeImpl8setStartERKNS_8DOM_NodeEj
                0x00000000000519f0                _ZNK11xercesc_2_89RangeImpl10cloneRangeEv
                0x0000000000051ae0                _ZN11xercesc_2_89RangeImpl16traverseContentsENS0_13TraversalTypeE
                0x0000000000051de0                _ZNK11xercesc_2_89RangeImpl13cloneContentsEv
                0x0000000000051e00                _ZN11xercesc_2_89RangeImpl15extractContentsEv
                0x0000000000051e50                _ZN11xercesc_2_89RangeImpl16surroundContentsERNS_8DOM_NodeE
                0x00000000000522c0                _ZN11xercesc_2_89RangeImpl14deleteContentsEv
                0x00000000000522f0                _ZN11xercesc_2_89RangeImpl12unreferencedEv
 *fill*         0x00000000000523dc        0x4 90909090
 .text._ZN11xercesc_2_815BaseRefVectorOfINS_8NodeImplEE10addElementEPS1_
                0x00000000000523e0       0xbe LINUX/depdom/RangeImpl.o
                0x00000000000523e0                _ZN11xercesc_2_815BaseRefVectorOfINS_8NodeImplEE10addElementEPS1_
 *fill*         0x000000000005249e        0x2 90909090
 .text._ZN11xercesc_2_811RefVectorOfINS_8NodeImplEED2Ev
                0x00000000000524a0       0x8d LINUX/depdom/RangeImpl.o
                0x00000000000524a0                _ZN11xercesc_2_811RefVectorOfINS_8NodeImplEED1Ev
                0x00000000000524a0                _ZN11xercesc_2_811RefVectorOfINS_8NodeImplEED2Ev
 *fill*         0x000000000005252d        0x3 90909090
 .text._ZN11xercesc_2_815BaseRefVectorOfINS_8NodeImplEED2Ev
                0x0000000000052530        0xf LINUX/depdom/RangeImpl.o
                0x0000000000052530                _ZN11xercesc_2_815BaseRefVectorOfINS_8NodeImplEED2Ev
                0x0000000000052530                _ZN11xercesc_2_815BaseRefVectorOfINS_8NodeImplEED1Ev
 *fill*         0x000000000005253f        0x1 90909090
 .text._ZN11xercesc_2_815BaseRefVectorOfINS_8NodeImplEE17removeAllElementsEv
                0x0000000000052540       0x75 LINUX/depdom/RangeImpl.o
                0x0000000000052540                _ZN11xercesc_2_815BaseRefVectorOfINS_8NodeImplEE17removeAllElementsEv
 *fill*         0x00000000000525b5        0xb 90909090
 .text._ZN11xercesc_2_815BaseRefVectorOfINS_8NodeImplEE17removeLastElementEv
                0x00000000000525c0       0x32 LINUX/depdom/RangeImpl.o
                0x00000000000525c0                _ZN11xercesc_2_815BaseRefVectorOfINS_8NodeImplEE17removeLastElementEv
 *fill*         0x00000000000525f2        0xe 90909090
 .text._ZN11xercesc_2_815BaseRefVectorOfINS_8NodeImplEE7cleanupEv
                0x0000000000052600       0x56 LINUX/depdom/RangeImpl.o
                0x0000000000052600                _ZN11xercesc_2_815BaseRefVectorOfINS_8NodeImplEE7cleanupEv
 *fill*         0x0000000000052656        0xa 90909090
 .text._ZN11xercesc_2_815BaseRefVectorOfINS_8NodeImplEE15removeElementAtEj
                0x0000000000052660      0x116 LINUX/depdom/RangeImpl.o
                0x0000000000052660                _ZN11xercesc_2_815BaseRefVectorOfINS_8NodeImplEE15removeElementAtEj
 *fill*         0x0000000000052776        0xa 90909090
 .text._ZN11xercesc_2_811RefVectorOfINS_8NodeImplEED0Ev
                0x0000000000052780       0x12 LINUX/depdom/RangeImpl.o
                0x0000000000052780                _ZN11xercesc_2_811RefVectorOfINS_8NodeImplEED0Ev
 *fill*         0x0000000000052792        0xe 90909090
 .text._ZN11xercesc_2_815BaseRefVectorOfINS_8NodeImplEED0Ev
                0x00000000000527a0       0x13 LINUX/depdom/RangeImpl.o
                0x00000000000527a0                _ZN11xercesc_2_815BaseRefVectorOfINS_8NodeImplEED0Ev
 *fill*         0x00000000000527b3        0xd 90909090
 .text._ZN11xercesc_2_815BaseRefVectorOfINS_8NodeImplEE9elementAtEj
                0x00000000000527c0       0xa6 LINUX/depdom/RangeImpl.o
                0x00000000000527c0                _ZN11xercesc_2_815BaseRefVectorOfINS_8NodeImplEE9elementAtEj
 *fill*         0x0000000000052866        0xa 90909090
 .text._ZN11xercesc_2_815BaseRefVectorOfINS_8NodeImplEE12setElementAtEPS1_j
                0x0000000000052870       0xe6 LINUX/depdom/RangeImpl.o
                0x0000000000052870                _ZN11xercesc_2_815BaseRefVectorOfINS_8NodeImplEE12setElementAtEPS1_j
 *fill*         0x0000000000052956        0xa 90909090
 .text          0x0000000000052960       0xc2 LINUX/depdom/RefCountedImpl.o
                0x0000000000052960                _ZN11xercesc_2_814RefCountedImplC1Ev
                0x0000000000052960                _ZN11xercesc_2_814RefCountedImplC2Ev
                0x0000000000052980                _ZN11xercesc_2_814RefCountedImplD1Ev
                0x0000000000052980                _ZN11xercesc_2_814RefCountedImplD2Ev
                0x0000000000052990                _ZN11xercesc_2_814RefCountedImpl6addRefEPS0_
                0x00000000000529c0                _ZN11xercesc_2_814RefCountedImpl10referencedEv
                0x00000000000529d0                _ZN11xercesc_2_814RefCountedImpl9removeRefEPS0_
                0x0000000000052a00                _ZN11xercesc_2_814RefCountedImpl12unreferencedEv
                0x0000000000052a10                _ZN11xercesc_2_814RefCountedImplD0Ev
 *fill*         0x0000000000052a22        0xe 90909090
 .text          0x0000000000052a30      0x469 LINUX/depdom/TextImpl.o
                0x0000000000052a30                _ZN11xercesc_2_88TextImpl10isTextImplEv
                0x0000000000052a40                _ZN11xercesc_2_88TextImpl11getNodeTypeEv
                0x0000000000052a50                _ZN11xercesc_2_88TextImpl21isIgnorableWhitespaceEv
                0x0000000000052a70                _ZN11xercesc_2_88TextImpl22setIgnorableWhitespaceEb
                0x0000000000052ac0                _ZN11xercesc_2_88TextImpl14reinitTextImplEv
                0x0000000000052af0                _ZN11xercesc_2_88TextImpl9splitTextEj
                0x0000000000052d60                _ZN11xercesc_2_88TextImpl11getNodeNameEv
                0x0000000000052da0                _ZN11xercesc_2_88TextImplD2Ev
                0x0000000000052da0                _ZN11xercesc_2_88TextImplD1Ev
                0x0000000000052dc0                _ZN11xercesc_2_88TextImplD0Ev
                0x0000000000052de0                _ZN11xercesc_2_88TextImplC2ERKS0_b
                0x0000000000052de0                _ZN11xercesc_2_88TextImplC1ERKS0_b
                0x0000000000052e00                _ZN11xercesc_2_88TextImpl9cloneNodeEb
                0x0000000000052e80                _ZN11xercesc_2_88TextImplC1EPNS_12DocumentImplERKNS_9DOMStringE
                0x0000000000052e80                _ZN11xercesc_2_88TextImplC2EPNS_12DocumentImplERKNS_9DOMStringE
 *fill*         0x0000000000052e99        0x7 90909090
 .text          0x0000000000052ea0     0x1883 LINUX/depdom/TreeWalkerImpl.o
                0x0000000000052ea0                _ZN11xercesc_2_814TreeWalkerImpl13getWhatToShowEv
                0x0000000000052eb0                _ZN11xercesc_2_814TreeWalkerImpl9getFilterEv
                0x0000000000052ec0                _ZN11xercesc_2_814TreeWalkerImpl25getExpandEntityReferencesEv
                0x0000000000052ed0                _ZN11xercesc_2_814TreeWalkerImpl10acceptNodeENS_8DOM_NodeE
                0x0000000000052fa0                _ZN11xercesc_2_814TreeWalkerImpl14getCurrentNodeEv
                0x0000000000052fc0                _ZN11xercesc_2_814TreeWalkerImpl7getRootEv
                0x0000000000052fe0                _ZN11xercesc_2_814TreeWalkerImpl13getParentNodeENS_8DOM_NodeE
                0x0000000000053150                _ZN11xercesc_2_814TreeWalkerImpl18getPreviousSiblingENS_8DOM_NodeE
                0x0000000000053450                _ZN11xercesc_2_814TreeWalkerImpl12getLastChildENS_8DOM_NodeE
                0x0000000000053600                _ZN11xercesc_2_814TreeWalkerImpl12previousNodeEv
                0x0000000000053830                _ZN11xercesc_2_814TreeWalkerImpl15previousSiblingEv
                0x0000000000053940                _ZN11xercesc_2_814TreeWalkerImpl9lastChildEv
                0x0000000000053a50                _ZN11xercesc_2_814TreeWalkerImpl14setCurrentNodeENS_8DOM_NodeE
                0x0000000000053a60                _ZN11xercesc_2_814TreeWalkerImplaSERKS0_
                0x0000000000053ac0                _ZN11xercesc_2_814TreeWalkerImpl14getNextSiblingENS_8DOM_NodeE
                0x0000000000053dc0                _ZN11xercesc_2_814TreeWalkerImpl13getFirstChildENS_8DOM_NodeE
                0x0000000000053f70                _ZN11xercesc_2_814TreeWalkerImpl10firstChildEv
                0x0000000000054080                _ZN11xercesc_2_814TreeWalkerImpl8nextNodeEv
                0x0000000000054300                _ZN11xercesc_2_814TreeWalkerImpl11nextSiblingEv
                0x0000000000054410                _ZN11xercesc_2_814TreeWalkerImpl10parentNodeEv
                0x0000000000054520                _ZN11xercesc_2_814TreeWalkerImpl12unreferencedEv
                0x00000000000545e0                _ZN11xercesc_2_814TreeWalkerImplC1ERKS0_
                0x00000000000545e0                _ZN11xercesc_2_814TreeWalkerImplC2ERKS0_
                0x0000000000054680                _ZN11xercesc_2_814TreeWalkerImplC2ENS_8DOM_NodeEmPNS_14DOM_NodeFilterEb
                0x0000000000054680                _ZN11xercesc_2_814TreeWalkerImplC1ENS_8DOM_NodeEmPNS_14DOM_NodeFilterEb
 *fill*         0x0000000000054723        0xd 90909090
 .text._ZN11xercesc_2_814TreeWalkerImplD2Ev
                0x0000000000054730       0x68 LINUX/depdom/TreeWalkerImpl.o
                0x0000000000054730                _ZN11xercesc_2_814TreeWalkerImplD1Ev
                0x0000000000054730                _ZN11xercesc_2_814TreeWalkerImplD2Ev
 *fill*         0x0000000000054798        0x8 90909090
 .text._ZN11xercesc_2_815BaseRefVectorOfINS_14TreeWalkerImplEE9elementAtEj
                0x00000000000547a0       0xa6 LINUX/depdom/TreeWalkerImpl.o
                0x00000000000547a0                _ZN11xercesc_2_815BaseRefVectorOfINS_14TreeWalkerImplEE9elementAtEj
 *fill*         0x0000000000054846        0xa 90909090
 .text._ZN11xercesc_2_814TreeWalkerImplD0Ev
                0x0000000000054850       0x70 LINUX/depdom/TreeWalkerImpl.o
                0x0000000000054850                _ZN11xercesc_2_814TreeWalkerImplD0Ev
 .text          0x00000000000548c0      0x5ba LINUX/depdom/XMLDeclImpl.o
                0x00000000000548c0                _ZN11xercesc_2_811XMLDeclImpl11getNodeTypeEv
                0x00000000000548e0                _ZN11xercesc_2_811XMLDeclImpl17reinitXMLDeclImplEv
                0x0000000000054910                _ZN11xercesc_2_811XMLDeclImpl13setStandaloneERKNS_9DOMStringE
                0x0000000000054960                _ZN11xercesc_2_811XMLDeclImpl11setEncodingERKNS_9DOMStringE
                0x00000000000549b0                _ZN11xercesc_2_811XMLDeclImpl10setVersionERKNS_9DOMStringE
                0x0000000000054a00                _ZNK11xercesc_2_811XMLDeclImpl13getStandaloneEv
                0x0000000000054a20                _ZNK11xercesc_2_811XMLDeclImpl11getEncodingEv
                0x0000000000054a40                _ZNK11xercesc_2_811XMLDeclImpl10getVersionEv
                0x0000000000054a60                _ZN11xercesc_2_811XMLDeclImpl11getNodeNameEv
                0x0000000000054aa0                _ZN11xercesc_2_811XMLDeclImplD1Ev
                0x0000000000054aa0                _ZN11xercesc_2_811XMLDeclImplD2Ev
                0x0000000000054b20                _ZN11xercesc_2_811XMLDeclImplD0Ev
                0x0000000000054b40                _ZN11xercesc_2_811XMLDeclImplC2ERKS0_b
                0x0000000000054b40                _ZN11xercesc_2_811XMLDeclImplC1ERKS0_b
                0x0000000000054c90                _ZN11xercesc_2_811XMLDeclImpl9cloneNodeEb
                0x0000000000054d10                _ZN11xercesc_2_811XMLDeclImplC2EPNS_12DocumentImplERKNS_9DOMStringES5_S5_
                0x0000000000054d10                _ZN11xercesc_2_811XMLDeclImplC1EPNS_12DocumentImplERKNS_9DOMStringES5_S5_
                0x0000000000054dd0                _ZN11xercesc_2_811XMLDeclImplC1EPNS_12DocumentImplE
                0x0000000000054dd0                _ZN11xercesc_2_811XMLDeclImplC2EPNS_12DocumentImplE
 *fill*         0x0000000000054e7a        0x6 90909090
 .text          0x0000000000054e80       0x36 /usr/lib/gcc/x86_64-redhat-linux/4.4.7/crtendS.o
 *fill*         0x0000000000054eb6        0x2 90909090
 .text          0x0000000000054eb8        0x0 /usr/lib/gcc/x86_64-redhat-linux/4.4.7/../../../../lib64/crtn.o
 *(.gnu.warning)

.fini           0x0000000000054eb8        0xe
 *(.fini)
 .fini          0x0000000000054eb8        0x4 /usr/lib/gcc/x86_64-redhat-linux/4.4.7/../../../../lib64/crti.o
                0x0000000000054eb8                _fini
 .fini          0x0000000000054ebc        0x5 /usr/lib/gcc/x86_64-redhat-linux/4.4.7/crtbeginS.o
 .fini          0x0000000000054ec1        0x5 /usr/lib/gcc/x86_64-redhat-linux/4.4.7/../../../../lib64/crtn.o
                0x0000000000054ec6                PROVIDE (__etext, .)
                0x0000000000054ec6                PROVIDE (_etext, .)
                0x0000000000054ec6                PROVIDE (etext, .)

.rodata         0x0000000000054ee0      0xfcd
 *(.rodata .rodata.* .gnu.linkonce.r.*)
 .rodata.str1.8
                0x0000000000054ee0       0x64 LINUX/depdom/AttrImpl.o
 .rodata.str1.1
                0x0000000000054f44        0x3 LINUX/depdom/AttrImpl.o
                                          0x5 (size before relaxing)
 *fill*         0x0000000000054f47        0x9 00
 .rodata._ZTSN11xercesc_2_810XMLDeleterE
                0x0000000000054f50       0x1c LINUX/depdom/AttrImpl.o
                0x0000000000054f50                _ZTSN11xercesc_2_810XMLDeleterE
 *fill*         0x0000000000054f6c        0x4 00
 .rodata._ZTSN11xercesc_2_88AttrImplE
                0x0000000000054f70       0x19 LINUX/depdom/AttrImpl.o
                0x0000000000054f70                _ZTSN11xercesc_2_88AttrImplE
 *fill*         0x0000000000054f89       0x17 00
 .rodata._ZTSN11xercesc_2_830ArrayIndexOutOfBoundsExceptionE
                0x0000000000054fa0       0x30 LINUX/depdom/AttrImpl.o
                0x0000000000054fa0                _ZTSN11xercesc_2_830ArrayIndexOutOfBoundsExceptionE
 .rodata._ZTSN11xercesc_2_811AttrMapImplE
                0x0000000000054fd0       0x1d LINUX/depdom/AttrMapImpl.o
                0x0000000000054fd0                _ZTSN11xercesc_2_811AttrMapImplE
 *fill*         0x0000000000054fed        0x3 00
 .rodata._ZTSN11xercesc_2_810AttrNSImplE
                0x0000000000054ff0       0x1c LINUX/depdom/AttrNSImpl.o
                0x0000000000054ff0                _ZTSN11xercesc_2_810AttrNSImplE
 .rodata.str1.1
                0x000000000005500c        0xf LINUX/depdom/CDATASectionImpl.o
 *fill*         0x000000000005501b        0x5 00
 .rodata._ZTSN11xercesc_2_816CDATASectionImplE
                0x0000000000055020       0x22 LINUX/depdom/CDATASectionImpl.o
                0x0000000000055020                _ZTSN11xercesc_2_816CDATASectionImplE
 .rodata.str1.8
                0x0000000000000000       0x64 LINUX/depdom/CharacterDataImpl.o
 *fill*         0x0000000000055042       0x1e 00
 .rodata._ZTSN11xercesc_2_817CharacterDataImplE
                0x0000000000055060       0x23 LINUX/depdom/CharacterDataImpl.o
                0x0000000000055060                _ZTSN11xercesc_2_817CharacterDataImplE
 *fill*         0x0000000000055083        0xd 00
 .rodata._ZTSN11xercesc_2_89ChildNodeE
                0x0000000000055090       0x1a LINUX/depdom/ChildNode.o
                0x0000000000055090                _ZTSN11xercesc_2_89ChildNodeE
 .rodata.str1.1
                0x00000000000550aa        0x9 LINUX/depdom/CommentImpl.o
 *fill*         0x00000000000550b3        0xd 00
 .rodata._ZTSN11xercesc_2_811CommentImplE
                0x00000000000550c0       0x1d LINUX/depdom/CommentImpl.o
                0x00000000000550c0                _ZTSN11xercesc_2_811CommentImplE
 .rodata.str1.1
                0x00000000000550dd        0x2 LINUX/depdom/DeepNodeListImpl.o
 *fill*         0x00000000000550df        0x1 00
 .rodata._ZTSN11xercesc_2_816DeepNodeListImplE
                0x00000000000550e0       0x22 LINUX/depdom/DeepNodeListImpl.o
                0x00000000000550e0                _ZTSN11xercesc_2_816DeepNodeListImplE
 .rodata.str1.1
                0x0000000000055102       0x13 LINUX/depdom/DocumentFragmentImpl.o
 *fill*         0x0000000000055115        0xb 00
 .rodata._ZTSN11xercesc_2_820DocumentFragmentImplE
                0x0000000000055120       0x26 LINUX/depdom/DocumentFragmentImpl.o
                0x0000000000055120                _ZTSN11xercesc_2_820DocumentFragmentImplE
 *fill*         0x0000000000055146        0x2 00
 .rodata.str1.8
                0x0000000000055148       0x63 LINUX/depdom/DocumentImpl.o
                                         0xcc (size before relaxing)
 *fill*         0x00000000000551ab        0x1 00
 .rodata        0x00000000000551ac       0x34 LINUX/depdom/DocumentImpl.o
 .rodata.str1.1
                0x00000000000551e0        0xa LINUX/depdom/DocumentImpl.o
 *fill*         0x00000000000551ea        0x6 00
 .rodata._ZTSN11xercesc_2_812DocumentImplE
                0x00000000000551f0       0x1e LINUX/depdom/DocumentImpl.o
                0x00000000000551f0                _ZTSN11xercesc_2_812DocumentImplE
 *fill*         0x000000000005520e       0x12 00
 .rodata._ZTSN11xercesc_2_824IllegalArgumentExceptionE
                0x0000000000055220       0x2a LINUX/depdom/DocumentImpl.o
                0x0000000000055220                _ZTSN11xercesc_2_824IllegalArgumentExceptionE
 *fill*         0x000000000005524a       0x16 00
 .rodata._ZTSN11xercesc_2_822NoSuchElementExceptionE
                0x0000000000055260       0x28 LINUX/depdom/DocumentImpl.o
                0x0000000000055260                _ZTSN11xercesc_2_822NoSuchElementExceptionE
 *fill*         0x0000000000055288       0x18 00
 .rodata._ZTSN11xercesc_2_811RefVectorOfINS_9RangeImplEEE
                0x00000000000552a0       0x2d LINUX/depdom/DocumentImpl.o
                0x00000000000552a0                _ZTSN11xercesc_2_811RefVectorOfINS_9RangeImplEEE
 *fill*         0x00000000000552cd       0x13 00
 .rodata._ZTSN11xercesc_2_815BaseRefVectorOfINS_9RangeImplEEE
                0x00000000000552e0       0x31 LINUX/depdom/DocumentImpl.o
                0x00000000000552e0                _ZTSN11xercesc_2_815BaseRefVectorOfINS_9RangeImplEEE
 *fill*         0x0000000000055311        0xf 00
 .rodata._ZTSN11xercesc_2_87XMemoryE
                0x0000000000055320       0x18 LINUX/depdom/DocumentImpl.o
                0x0000000000055320                _ZTSN11xercesc_2_87XMemoryE
 *fill*         0x0000000000055338        0x8 00
 .rodata._ZTSN11xercesc_2_811RefVectorOfINS_14TreeWalkerImplEEE
                0x0000000000055340       0x33 LINUX/depdom/DocumentImpl.o
                0x0000000000055340                _ZTSN11xercesc_2_811RefVectorOfINS_14TreeWalkerImplEEE
 *fill*         0x0000000000055373        0xd 00
 .rodata._ZTSN11xercesc_2_815BaseRefVectorOfINS_14TreeWalkerImplEEE
                0x0000000000055380       0x37 LINUX/depdom/DocumentImpl.o
                0x0000000000055380                _ZTSN11xercesc_2_815BaseRefVectorOfINS_14TreeWalkerImplEEE
 *fill*         0x00000000000553b7        0x9 00
 .rodata._ZTSN11xercesc_2_811RefVectorOfINS_16NodeIteratorImplEEE
                0x00000000000553c0       0x35 LINUX/depdom/DocumentImpl.o
                0x00000000000553c0                _ZTSN11xercesc_2_811RefVectorOfINS_16NodeIteratorImplEEE
 *fill*         0x00000000000553f5        0xb 00
 .rodata._ZTSN11xercesc_2_815BaseRefVectorOfINS_16NodeIteratorImplEEE
                0x0000000000055400       0x39 LINUX/depdom/DocumentImpl.o
                0x0000000000055400                _ZTSN11xercesc_2_815BaseRefVectorOfINS_16NodeIteratorImplEEE
 *fill*         0x0000000000055439        0x7 00
 .rodata._ZTSN11xercesc_2_816DocumentTypeImplE
                0x0000000000055440       0x22 LINUX/depdom/DocumentTypeImpl.o
                0x0000000000055440                _ZTSN11xercesc_2_816DocumentTypeImplE
 *fill*         0x0000000000055462       0x1e 00
 .rodata._ZTSN11xercesc_2_816DOM_DOMExceptionE
                0x0000000000055480       0x22 LINUX/depdom/DOM_DOMException.o
                0x0000000000055480                _ZTSN11xercesc_2_816DOM_DOMExceptionE
 .rodata.str1.1
                0x00000000000554a2       0x21 LINUX/depdom/DOM_DOMImplementation.o
 *fill*         0x00000000000554c3        0x5 00
 .rodata.str1.8
                0x00000000000554c8      0x12c LINUX/depdom/DomMemDebug.o
 .rodata.str1.1
                0x00000000000555f4       0x50 LINUX/depdom/DomMemDebug.o
 .rodata        0x0000000000055644        0x4 LINUX/depdom/DOM_NamedNodeMap.o
                0x0000000000055644                _ZN11xercesc_2_816DOM_NamedNodeMap11NNM_ELEMENTE
                0x0000000000055646                _ZN11xercesc_2_816DOM_NamedNodeMap9NNM_OTHERE
 *fill*         0x0000000000055648       0x18 00
 .rodata._ZTSN11xercesc_2_814DOM_NodeFilterE
                0x0000000000055660       0x20 LINUX/depdom/DOM_NodeFilter.o
                0x0000000000055660                _ZTSN11xercesc_2_814DOM_NodeFilterE
 .rodata.str1.1
                0x0000000000055680        0xe LINUX/depdom/DOMParser.o
 *fill*         0x000000000005568e        0x2 00
 .rodata        0x0000000000055690       0x40 LINUX/depdom/DOMParser.o
 .rodata.str1.8
                0x00000000000556d0       0xc9 LINUX/depdom/DOMParser.o
                                        0x131 (size before relaxing)
 *fill*         0x0000000000055799        0x7 00
 .rodata._ZTSN11xercesc_2_815ContentSpecNodeE
                0x00000000000557a0       0x21 LINUX/depdom/DOMParser.o
                0x00000000000557a0                _ZTSN11xercesc_2_815ContentSpecNodeE
 *fill*         0x00000000000557c1        0xf 00
 .rodata._ZTSN11xercesc_2_89DOMParserE
                0x00000000000557d0       0x1a LINUX/depdom/DOMParser.o
                0x00000000000557d0                _ZTSN11xercesc_2_89DOMParserE
 *fill*         0x00000000000557ea        0x6 00
 .rodata._ZTSN11xercesc_2_813XMLAttDefListE
                0x00000000000557f0       0x1f LINUX/depdom/DOMParser.o
                0x00000000000557f0                _ZTSN11xercesc_2_813XMLAttDefListE
 *fill*         0x000000000005580f        0x1 00
 .rodata._ZTSN11xercesc_2_813DTDEntityDeclE
                0x0000000000055810       0x1f LINUX/depdom/DOMParser.o
                0x0000000000055810                _ZTSN11xercesc_2_813DTDEntityDeclE
 *fill*         0x000000000005582f        0x1 00
 .rodata._ZTSN11xercesc_2_810XMLRefInfoE
                0x0000000000055830       0x1c LINUX/depdom/DOMParser.o
                0x0000000000055830                _ZTSN11xercesc_2_810XMLRefInfoE
 *fill*         0x000000000005584c        0x4 00
 .rodata._ZTSN11xercesc_2_813XSerializableE
                0x0000000000055850       0x1f LINUX/depdom/DOMParser.o
                0x0000000000055850                _ZTSN11xercesc_2_813XSerializableE
 *fill*         0x000000000005586f       0x11 00
 .rodata._ZTSN11xercesc_2_818XMLDocumentHandlerE
                0x0000000000055880       0x24 LINUX/depdom/DOMParser.o
                0x0000000000055880                _ZTSN11xercesc_2_818XMLDocumentHandlerE
 *fill*         0x00000000000558a4       0x1c 00
 .rodata._ZTSN11xercesc_2_816XMLErrorReporterE
                0x00000000000558c0       0x22 LINUX/depdom/DOMParser.o
                0x00000000000558c0                _ZTSN11xercesc_2_816XMLErrorReporterE
 *fill*         0x00000000000558e2       0x1e 00
 .rodata._ZTSN11xercesc_2_816XMLEntityHandlerE
                0x0000000000055900       0x22 LINUX/depdom/DOMParser.o
                0x0000000000055900                _ZTSN11xercesc_2_816XMLEntityHandlerE
 *fill*         0x0000000000055922       0x1e 00
 .rodata._ZTSN11xercesc_2_814DocTypeHandlerE
                0x0000000000055940       0x20 LINUX/depdom/DOMParser.o
                0x0000000000055940                _ZTSN11xercesc_2_814DocTypeHandlerE
 .rodata._ZTSN11xercesc_2_811IOExceptionE
                0x0000000000055960       0x1d LINUX/depdom/DOMParser.o
                0x0000000000055960                _ZTSN11xercesc_2_811IOExceptionE
 *fill*         0x000000000005597d        0x3 00
 .rodata._ZTSN11xercesc_2_819EmptyStackExceptionE
                0x0000000000055980       0x25 LINUX/depdom/DOMParser.o
                0x0000000000055980                _ZTSN11xercesc_2_819EmptyStackExceptionE
 *fill*         0x00000000000559a5       0x1b 00
 .rodata._ZTSN11xercesc_2_820OutOfMemoryExceptionE
                0x00000000000559c0       0x26 LINUX/depdom/DOMParser.o
                0x00000000000559c0                _ZTSN11xercesc_2_820OutOfMemoryExceptionE
 *fill*         0x00000000000559e6        0x2 00
 .rodata.cst8   0x00000000000559e8        0x8 LINUX/depdom/DOMParser.o
 *fill*         0x00000000000559f0       0x10 00
 .rodata._ZTSN11xercesc_2_818DOM_RangeExceptionE
                0x0000000000055a00       0x24 LINUX/depdom/DOM_RangeException.o
                0x0000000000055a00                _ZTSN11xercesc_2_818DOM_RangeExceptionE
 *fill*         0x0000000000055a24       0x1c 00
 .rodata._ZTSN11xercesc_2_821ElementDefinitionImplE
                0x0000000000055a40       0x27 LINUX/depdom/ElementDefinitionImpl.o
                0x0000000000055a40                _ZTSN11xercesc_2_821ElementDefinitionImplE
 .rodata.str1.1
                0x0000000000000000        0xe LINUX/depdom/ElementImpl.o
                                          0x1 (size before relaxing)
 *fill*         0x0000000000055a67        0x9 00
 .rodata._ZTSN11xercesc_2_811ElementImplE
                0x0000000000055a70       0x1d LINUX/depdom/ElementImpl.o
                0x0000000000055a70                _ZTSN11xercesc_2_811ElementImplE
 *fill*         0x0000000000055a8d        0x3 00
 .rodata._ZTSN11xercesc_2_813ElementNSImplE
                0x0000000000055a90       0x1f LINUX/depdom/ElementNSImpl.o
                0x0000000000055a90                _ZTSN11xercesc_2_813ElementNSImplE
 *fill*         0x0000000000055aaf        0x1 00
 .rodata._ZTSN11xercesc_2_810EntityImplE
                0x0000000000055ab0       0x1c LINUX/depdom/EntityImpl.o
                0x0000000000055ab0                _ZTSN11xercesc_2_810EntityImplE
 *fill*         0x0000000000055acc       0x14 00
 .rodata._ZTSN11xercesc_2_819EntityReferenceImplE
                0x0000000000055ae0       0x25 LINUX/depdom/EntityReferenceImpl.o
                0x0000000000055ae0                _ZTSN11xercesc_2_819EntityReferenceImplE
 *fill*         0x0000000000055b05       0x1b 00
 .rodata._ZTSN11xercesc_2_816NamedNodeMapImplE
                0x0000000000055b20       0x22 LINUX/depdom/NamedNodeMapImpl.o
                0x0000000000055b20                _ZTSN11xercesc_2_816NamedNodeMapImplE
 .rodata.str1.1
                0x0000000000055b42        0xe LINUX/depdom/NodeIDMap.o
 .rodata._ZTSN11xercesc_2_89NodeIDMapE
                0x0000000000055b50       0x1a LINUX/depdom/NodeIDMap.o
                0x0000000000055b50                _ZTSN11xercesc_2_89NodeIDMapE
 *fill*         0x0000000000055b6a        0x6 00
 .rodata        0x0000000000055b70       0x14 LINUX/depdom/NodeIDMap.o
 *fill*         0x0000000000055b84       0x1c 00
 .rodata._ZTSN11xercesc_2_816RuntimeExceptionE
                0x0000000000055ba0       0x22 LINUX/depdom/NodeIDMap.o
                0x0000000000055ba0                _ZTSN11xercesc_2_816RuntimeExceptionE
 *fill*         0x0000000000055bc2        0x2 00
 .rodata.cst4   0x0000000000055bc4        0x8 LINUX/depdom/NodeIDMap.o
 *fill*         0x0000000000055bcc        0x4 00
 .rodata.str1.8
                0x0000000000055bd0       0x28 LINUX/depdom/NodeImpl.o
                                         0x25 (size before relaxing)
 .rodata.str1.1
                0x0000000000055bf8       0x2f LINUX/depdom/NodeImpl.o
 *fill*         0x0000000000055c27        0x1 00
 .rodata        0x0000000000055c28       0x16 LINUX/depdom/NodeImpl.o
                0x0000000000055c28                _ZN11xercesc_2_88NodeImpl8READONLYE
                0x0000000000055c2a                _ZN11xercesc_2_88NodeImpl8SYNCDATAE
                0x0000000000055c2c                _ZN11xercesc_2_88NodeImpl12SYNCCHILDRENE
                0x0000000000055c2e                _ZN11xercesc_2_88NodeImpl5OWNEDE
                0x0000000000055c30                _ZN11xercesc_2_88NodeImpl10FIRSTCHILDE
                0x0000000000055c32                _ZN11xercesc_2_88NodeImpl9SPECIFIEDE
                0x0000000000055c34                _ZN11xercesc_2_88NodeImpl11IGNORABLEWSE
                0x0000000000055c36                _ZN11xercesc_2_88NodeImpl8SETVALUEE
                0x0000000000055c38                _ZN11xercesc_2_88NodeImpl7ID_ATTRE
                0x0000000000055c3a                _ZN11xercesc_2_88NodeImpl8USERDATAE
                0x0000000000055c3c                _ZN11xercesc_2_88NodeImpl9HASSTRINGE
 *fill*         0x0000000000055c3e        0x2 00
 .rodata._ZTSN11xercesc_2_88NodeImplE
                0x0000000000055c40       0x19 LINUX/depdom/NodeImpl.o
                0x0000000000055c40                _ZTSN11xercesc_2_88NodeImplE
 .rodata.str1.8
                0x0000000000000000       0x64 LINUX/depdom/NodeIteratorImpl.o
 *fill*         0x0000000000055c59        0x7 00
 .rodata._ZTSN11xercesc_2_816NodeIteratorImplE
                0x0000000000055c60       0x22 LINUX/depdom/NodeIteratorImpl.o
                0x0000000000055c60                _ZTSN11xercesc_2_816NodeIteratorImplE
 *fill*         0x0000000000055c82        0xe 00
 .rodata._ZTSN11xercesc_2_812NodeListImplE
                0x0000000000055c90       0x1e LINUX/depdom/NodeListImpl.o
                0x0000000000055c90                _ZTSN11xercesc_2_812NodeListImplE
 *fill*         0x0000000000055cae        0x2 00
 .rodata._ZTSN11xercesc_2_812NotationImplE
                0x0000000000055cb0       0x1e LINUX/depdom/NotationImpl.o
                0x0000000000055cb0                _ZTSN11xercesc_2_812NotationImplE
 .rodata.str1.8
                0x0000000000000000       0x64 LINUX/depdom/ParentNode.o
 *fill*         0x0000000000055cce        0x2 00
 .rodata._ZTSN11xercesc_2_810ParentNodeE
                0x0000000000055cd0       0x1c LINUX/depdom/ParentNode.o
                0x0000000000055cd0                _ZTSN11xercesc_2_810ParentNodeE
 *fill*         0x0000000000055cec       0x14 00
 .rodata._ZTSN11xercesc_2_825ProcessingInstructionImplE
                0x0000000000055d00       0x2b LINUX/depdom/ProcessingInstructionImpl.o
                0x0000000000055d00                _ZTSN11xercesc_2_825ProcessingInstructionImplE
 .rodata.str1.8
                0x0000000000000000       0x64 LINUX/depdom/RangeImpl.o
 *fill*         0x0000000000055d2b        0x5 00
 .rodata._ZTSN11xercesc_2_89RangeImplE
                0x0000000000055d30       0x1a LINUX/depdom/RangeImpl.o
                0x0000000000055d30                _ZTSN11xercesc_2_89RangeImplE
 *fill*         0x0000000000055d4a       0x16 00
 .rodata._ZTSN11xercesc_2_811RefVectorOfINS_8NodeImplEEE
                0x0000000000055d60       0x2c LINUX/depdom/RangeImpl.o
                0x0000000000055d60                _ZTSN11xercesc_2_811RefVectorOfINS_8NodeImplEEE
 *fill*         0x0000000000055d8c       0x14 00
 .rodata._ZTSN11xercesc_2_815BaseRefVectorOfINS_8NodeImplEEE
                0x0000000000055da0       0x30 LINUX/depdom/RangeImpl.o
                0x0000000000055da0                _ZTSN11xercesc_2_815BaseRefVectorOfINS_8NodeImplEEE
 .rodata        0x0000000000055dd0       0x15 LINUX/depdom/RangeImpl.o
 *fill*         0x0000000000055de5       0x1b 00
 .rodata._ZTSN11xercesc_2_814RefCountedImplE
                0x0000000000055e00       0x20 LINUX/depdom/RefCountedImpl.o
                0x0000000000055e00                _ZTSN11xercesc_2_814RefCountedImplE
 .rodata.str1.8
                0x0000000000000000       0x64 LINUX/depdom/TextImpl.o
 .rodata.str1.1
                0x0000000000055e20        0x6 LINUX/depdom/TextImpl.o
 *fill*         0x0000000000055e26        0xa 00
 .rodata._ZTSN11xercesc_2_88TextImplE
                0x0000000000055e30       0x19 LINUX/depdom/TextImpl.o
                0x0000000000055e30                _ZTSN11xercesc_2_88TextImplE
 .rodata.str1.8
                0x0000000000000000       0x64 LINUX/depdom/TreeWalkerImpl.o
 *fill*         0x0000000000055e49       0x17 00
 .rodata._ZTSN11xercesc_2_814TreeWalkerImplE
                0x0000000000055e60       0x20 LINUX/depdom/TreeWalkerImpl.o
                0x0000000000055e60                _ZTSN11xercesc_2_814TreeWalkerImplE
 .rodata.str1.1
                0x0000000000055e80        0x9 LINUX/depdom/XMLDeclImpl.o
 *fill*         0x0000000000055e89        0x7 00
 .rodata._ZTSN11xercesc_2_811XMLDeclImplE
                0x0000000000055e90       0x1d LINUX/depdom/XMLDeclImpl.o
                0x0000000000055e90                _ZTSN11xercesc_2_811XMLDeclImplE

.rodata1
 *(.rodata1)

.eh_frame_hdr   0x0000000000055eb0     0x24d4
 *(.eh_frame_hdr)
 .eh_frame_hdr  0x0000000000055eb0     0x24d4 LINUX/depdom/AttrImpl.o

.eh_frame       0x0000000000058388     0x9f94
 *(.eh_frame)
 .eh_frame      0x0000000000058388      0x608 LINUX/depdom/AttrImpl.o
                                        0x588 (size before relaxing)
 .eh_frame      0x0000000000058990      0x120 LINUX/depdom/AttrMapImpl.o
                                        0x170 (size before relaxing)
 .eh_frame      0x0000000000058ab0      0x190 LINUX/depdom/AttrNSImpl.o
                                        0x1e0 (size before relaxing)
 .eh_frame      0x0000000000058c40      0x128 LINUX/depdom/CDATASectionImpl.o
                                        0x168 (size before relaxing)
 .eh_frame      0x0000000000058d68      0x220 LINUX/depdom/CharacterDataImpl.o
                                        0x300 (size before relaxing)
 .eh_frame      0x0000000000058f88       0xc0 LINUX/depdom/ChildNode.o
 .eh_frame      0x0000000000059048      0x110 LINUX/depdom/CommentImpl.o
                                        0x158 (size before relaxing)
 .eh_frame      0x0000000000059158      0x1b0 LINUX/depdom/DeepNodeListImpl.o
                                        0x1f8 (size before relaxing)
 .eh_frame      0x0000000000059308      0x130 LINUX/depdom/DocumentFragmentImpl.o
                                        0x178 (size before relaxing)
 .eh_frame      0x0000000000059438      0xe08 LINUX/depdom/DocumentImpl.o
                                        0xde8 (size before relaxing)
 .eh_frame      0x000000000005a240      0x2f8 LINUX/depdom/DocumentTypeImpl.o
                                        0x328 (size before relaxing)
 .eh_frame      0x000000000005a538      0x128 LINUX/depdom/DOM_Attr.o
                                        0x138 (size before relaxing)
 .eh_frame      0x000000000005a660       0x90 LINUX/depdom/DOM_CDATASection.o
                                         0x98 (size before relaxing)
 .eh_frame      0x000000000005a6f0      0x160 LINUX/depdom/DOM_CharacterData.o
                                        0x148 (size before relaxing)
 .eh_frame      0x000000000005a850       0x90 LINUX/depdom/DOM_Comment.o
                                         0x98 (size before relaxing)
 .eh_frame      0x000000000005a8e0       0x90 LINUX/depdom/DOM_DocumentFragment.o
                                         0x98 (size before relaxing)
 .eh_frame      0x000000000005a970      0x420 LINUX/depdom/DOM_Document.o
                                        0x400 (size before relaxing)
 .eh_frame      0x000000000005ad90      0x188 LINUX/depdom/DOM_DocumentType.o
                                        0x190 (size before relaxing)
 .eh_frame      0x000000000005af18       0x98 LINUX/depdom/DOM_DOMException.o
                                         0xa0 (size before relaxing)
 .eh_frame      0x000000000005afb0      0x168 LINUX/depdom/DOM_DOMImplementation.o
                                        0x1a8 (size before relaxing)
 .eh_frame      0x000000000005b118      0x290 LINUX/depdom/DOM_Element.o
                                        0x270 (size before relaxing)
 .eh_frame      0x000000000005b3a8      0x1c0 LINUX/depdom/DOM_Entity.o
 .eh_frame      0x000000000005b568       0x90 LINUX/depdom/DOM_EntityReference.o
                                         0x98 (size before relaxing)
 .eh_frame      0x000000000005b5f8       0xc0 LINUX/depdom/DomMemDebug.o
                                         0xc8 (size before relaxing)
 .eh_frame      0x000000000005b6b8      0x210 LINUX/depdom/DOM_NamedNodeMap.o
                                        0x200 (size before relaxing)
 .eh_frame      0x000000000005b8c8       0x50 LINUX/depdom/DOM_NodeFilter.o
                                         0x60 (size before relaxing)
 .eh_frame      0x000000000005b918      0x1c8 LINUX/depdom/DOM_NodeIterator.o
                                        0x1a0 (size before relaxing)
 .eh_frame      0x000000000005bae0      0x140 LINUX/depdom/DOM_NodeList.o
                                        0x130 (size before relaxing)
 .eh_frame      0x000000000005bc20      0x460 LINUX/depdom/DOM_Node.o
                                        0x430 (size before relaxing)
 .eh_frame      0x000000000005c080       0xd0 LINUX/depdom/DOM_Notation.o
 .eh_frame      0x000000000005c150     0x12f8 LINUX/depdom/DOMParser.o
                                       0x11c0 (size before relaxing)
 .eh_frame      0x000000000005d448      0x108 LINUX/depdom/DOM_ProcessingInstruction.o
                                        0x128 (size before relaxing)
 .eh_frame      0x000000000005d550       0x98 LINUX/depdom/DOM_RangeException.o
                                         0xa0 (size before relaxing)
 .eh_frame      0x000000000005d5e8      0x380 LINUX/depdom/DOM_Range.o
                                        0x340 (size before relaxing)
 .eh_frame      0x000000000005d968      0x748 LINUX/depdom/DOMString.o
                                        0x720 (size before relaxing)
 .eh_frame      0x000000000005e0b0       0xc8 LINUX/depdom/DOM_Text.o
 .eh_frame      0x000000000005e178      0x280 LINUX/depdom/DOM_TreeWalker.o
                                        0x268 (size before relaxing)
 .eh_frame      0x000000000005e3f8       0xf0 LINUX/depdom/DOM_XMLDecl.o
                                         0xe8 (size before relaxing)
 .eh_frame      0x000000000005e4e8      0x158 LINUX/depdom/DStringPool.o
                                        0x1b8 (size before relaxing)
 .eh_frame      0x000000000005e640      0x110 LINUX/depdom/ElementDefinitionImpl.o
                                        0x168 (size before relaxing)
 .eh_frame      0x000000000005e750      0x6a0 LINUX/depdom/ElementImpl.o
                                        0x6a8 (size before relaxing)
 .eh_frame      0x000000000005edf0      0x190 LINUX/depdom/ElementNSImpl.o
                                        0x1e0 (size before relaxing)
 .eh_frame      0x000000000005ef80      0x1e0 LINUX/depdom/EntityImpl.o
                                        0x218 (size before relaxing)
 .eh_frame      0x000000000005f160      0x148 LINUX/depdom/EntityReferenceImpl.o
                                        0x198 (size before relaxing)
 .eh_frame      0x000000000005f2a8      0x398 LINUX/depdom/NamedNodeMapImpl.o
                                        0x3e0 (size before relaxing)
 .eh_frame      0x000000000005f640      0x218 LINUX/depdom/NodeIDMap.o
                                        0x260 (size before relaxing)
 .eh_frame      0x000000000005f858      0x630 LINUX/depdom/NodeImpl.o
                                        0x5f0 (size before relaxing)
 .eh_frame      0x000000000005fe88      0x358 LINUX/depdom/NodeIteratorImpl.o
                                        0x400 (size before relaxing)
 .eh_frame      0x00000000000601e0       0x58 LINUX/depdom/NodeListImpl.o
                                         0x68 (size before relaxing)
 .eh_frame      0x0000000000060238      0x170 LINUX/depdom/NodeVector.o
                                        0x180 (size before relaxing)
 .eh_frame      0x00000000000603a8      0x1b0 LINUX/depdom/NotationImpl.o
                                        0x1d0 (size before relaxing)
 .eh_frame      0x0000000000060558      0x2e0 LINUX/depdom/ParentNode.o
                                        0x390 (size before relaxing)
 .eh_frame      0x0000000000060838      0x1b8 LINUX/depdom/ProcessingInstructionImpl.o
                                        0x200 (size before relaxing)
 .eh_frame      0x00000000000609f0     0x1050 LINUX/depdom/RangeImpl.o
                                       0x1070 (size before relaxing)
 .eh_frame      0x0000000000061a40       0xb0 LINUX/depdom/RefCountedImpl.o
 .eh_frame      0x0000000000061af0      0x188 LINUX/depdom/TextImpl.o
                                        0x250 (size before relaxing)
 .eh_frame      0x0000000000061c78      0x460 LINUX/depdom/TreeWalkerImpl.o
                                        0x500 (size before relaxing)
 .eh_frame      0x00000000000620d8      0x240 LINUX/depdom/XMLDeclImpl.o
                                        0x270 (size before relaxing)
 .eh_frame      0x0000000000062318        0x4 /usr/lib/gcc/x86_64-redhat-linux/4.4.7/crtendS.o

.gcc_except_table
                0x000000000006231c     0x443e
 *(.gcc_except_table .gcc_except_table.*)
 .gcc_except_table
                0x000000000006231c      0x253 LINUX/depdom/AttrImpl.o
 .gcc_except_table
                0x000000000006256f       0x25 LINUX/depdom/AttrMapImpl.o
 .gcc_except_table
                0x0000000000062594      0x211 LINUX/depdom/AttrNSImpl.o
 .gcc_except_table
                0x00000000000627a5       0x10 LINUX/depdom/CDATASectionImpl.o
 *fill*         0x00000000000627b5        0x3 00
 .gcc_except_table
                0x00000000000627b8      0x18d LINUX/depdom/CharacterDataImpl.o
 .gcc_except_table
                0x0000000000062945       0x10 LINUX/depdom/CommentImpl.o
 .gcc_except_table
                0x0000000000062955       0x96 LINUX/depdom/DeepNodeListImpl.o
 .gcc_except_table
                0x00000000000629eb       0x20 LINUX/depdom/DocumentFragmentImpl.o
 *fill*         0x0000000000062a0b        0x1 00
 .gcc_except_table
                0x0000000000062a0c      0x6e8 LINUX/depdom/DocumentImpl.o
 .gcc_except_table
                0x00000000000630f4      0x192 LINUX/depdom/DocumentTypeImpl.o
 .gcc_except_table
                0x0000000000063286       0x14 LINUX/depdom/DOM_Attr.o
 .gcc_except_table
                0x000000000006329a       0x40 LINUX/depdom/DOM_Document.o
 .gcc_except_table
                0x00000000000632da       0x50 LINUX/depdom/DOM_DocumentType.o
 *fill*         0x000000000006332a        0x2 00
 .gcc_except_table
                0x000000000006332c       0x68 LINUX/depdom/DOM_DOMImplementation.o
 .gcc_except_table
                0x0000000000063394       0x3c LINUX/depdom/DOM_Element.o
 .gcc_except_table
                0x00000000000633d0       0x3c LINUX/depdom/DOM_Entity.o
 .gcc_except_table
                0x000000000006340c       0x64 LINUX/depdom/DOM_Node.o
 .gcc_except_table
                0x0000000000063470      0x73c LINUX/depdom/DOMParser.o
 .gcc_except_table
                0x0000000000063bac       0x3c LINUX/depdom/DOM_ProcessingInstruction.o
 .gcc_except_table
                0x0000000000063be8      0x169 LINUX/depdom/DOMString.o
 .gcc_except_table
                0x0000000000063d51       0x14 LINUX/depdom/DOM_TreeWalker.o
 .gcc_except_table
                0x0000000000063d65       0x67 LINUX/depdom/DStringPool.o
 .gcc_except_table
                0x0000000000063dcc       0x61 LINUX/depdom/ElementDefinitionImpl.o
 *fill*         0x0000000000063e2d        0x3 00
 .gcc_except_table
                0x0000000000063e30      0x307 LINUX/depdom/ElementImpl.o
 *fill*         0x0000000000064137        0x1 00
 .gcc_except_table
                0x0000000000064138      0x1c5 LINUX/depdom/ElementNSImpl.o
 .gcc_except_table
                0x00000000000642fd       0xb9 LINUX/depdom/EntityImpl.o
 *fill*         0x00000000000643b6        0x2 00
 .gcc_except_table
                0x00000000000643b8       0x8b LINUX/depdom/EntityReferenceImpl.o
 *fill*         0x0000000000064443        0x1 00
 .gcc_except_table
                0x0000000000064444      0x232 LINUX/depdom/NamedNodeMapImpl.o
 .gcc_except_table
                0x0000000000064676       0x88 LINUX/depdom/NodeIDMap.o
 *fill*         0x00000000000646fe        0x2 00
 .gcc_except_table
                0x0000000000064700      0x1bb LINUX/depdom/NodeImpl.o
 *fill*         0x00000000000648bb        0x1 00
 .gcc_except_table
                0x00000000000648bc      0x367 LINUX/depdom/NodeIteratorImpl.o
 *fill*         0x0000000000064c23        0x1 00
 .gcc_except_table
                0x0000000000064c24       0xeb LINUX/depdom/NotationImpl.o
 *fill*         0x0000000000064d0f        0x1 00
 .gcc_except_table
                0x0000000000064d10      0x109 LINUX/depdom/ParentNode.o
 *fill*         0x0000000000064e19        0x3 00
 .gcc_except_table
                0x0000000000064e1c       0xf5 LINUX/depdom/ProcessingInstructionImpl.o
 *fill*         0x0000000000064f11        0x3 00
 .gcc_except_table
                0x0000000000064f14     0x125f LINUX/depdom/RangeImpl.o
 *fill*         0x0000000000066173        0x1 00
 .gcc_except_table
                0x0000000000066174       0x8d LINUX/depdom/TextImpl.o
 .gcc_except_table
                0x0000000000066201      0x47b LINUX/depdom/TreeWalkerImpl.o
 .gcc_except_table
                0x000000000006667c       0xde LINUX/depdom/XMLDeclImpl.o
                0x000000000006675a                . = (ALIGN (0x200000) - ((0x200000 - .) & 0x1fffff))
                0x000000000026675a                . = (0x200000 DATA_SEGMENT_ALIGN 0x1000)

.eh_frame
 *(.eh_frame)

.gcc_except_table
 *(.gcc_except_table .gcc_except_table.*)

.tdata
 *(.tdata .tdata.* .gnu.linkonce.td.*)

.tbss
 *(.tbss .tbss.* .gnu.linkonce.tb.*)
 *(.tcommon)

.preinit_array
 *(.preinit_array)

.init_array
 *(SORT(.init_array.*))
 *(.init_array)

.fini_array
 *(.fini_array)
 *(SORT(.fini_array.*))

.ctors          0x0000000000266760       0x68
 *crtbegin.o(.ctors)
 *crtbegin?.o(.ctors)
 .ctors         0x0000000000266760        0x8 /usr/lib/gcc/x86_64-redhat-linux/4.4.7/crtbeginS.o
 *(EXCLUDE_FILE(*crtend?.o *crtend.o) .ctors)
 .ctors         0x0000000000266768        0x8 LINUX/depdom/CDATASectionImpl.o
 .ctors         0x0000000000266770        0x8 LINUX/depdom/CommentImpl.o
 .ctors         0x0000000000266778        0x8 LINUX/depdom/DeepNodeListImpl.o
 .ctors         0x0000000000266780        0x8 LINUX/depdom/DocumentFragmentImpl.o
 .ctors         0x0000000000266788        0x8 LINUX/depdom/DocumentImpl.o
 .ctors         0x0000000000266790        0x8 LINUX/depdom/DOM_DOMImplementation.o
 .ctors         0x0000000000266798        0x8 LINUX/depdom/DOMString.o
 .ctors         0x00000000002667a0        0x8 LINUX/depdom/ElementImpl.o
 .ctors         0x00000000002667a8        0x8 LINUX/depdom/NodeImpl.o
 .ctors         0x00000000002667b0        0x8 LINUX/depdom/TextImpl.o
 .ctors         0x00000000002667b8        0x8 LINUX/depdom/XMLDeclImpl.o
 *(SORT(.ctors.*))
 *(.ctors)
 .ctors         0x00000000002667c0        0x8 /usr/lib/gcc/x86_64-redhat-linux/4.4.7/crtendS.o

.dtors          0x00000000002667c8       0x10
 *crtbegin.o(.dtors)
 *crtbegin?.o(.dtors)
 .dtors         0x00000000002667c8        0x8 /usr/lib/gcc/x86_64-redhat-linux/4.4.7/crtbeginS.o
 *(EXCLUDE_FILE(*crtend?.o *crtend.o) .dtors)
 *(SORT(.dtors.*))
 *(.dtors)
 .dtors         0x00000000002667d0        0x8 /usr/lib/gcc/x86_64-redhat-linux/4.4.7/crtendS.o
                0x00000000002667d0                __DTOR_END__

.jcr            0x00000000002667d8        0x8
 *(.jcr)
 .jcr           0x00000000002667d8        0x0 /usr/lib/gcc/x86_64-redhat-linux/4.4.7/crtbeginS.o
 .jcr           0x00000000002667d8        0x8 /usr/lib/gcc/x86_64-redhat-linux/4.4.7/crtendS.o

.data.rel.ro    0x00000000002667e0     0x3b38
 *(.data.rel.ro.local* .gnu.linkonce.d.rel.ro.local.*)
 *(.data.rel.ro* .gnu.linkonce.d.rel.ro.*)
 .data.rel.ro   0x00000000002667e0        0x8 /usr/lib/gcc/x86_64-redhat-linux/4.4.7/crtbeginS.o
                0x00000000002667e0                __dso_handle
 *fill*         0x00000000002667e8       0x18 00
 .data.rel.ro._ZTVN11xercesc_2_88AttrImplE
                0x0000000000266800      0x1b0 LINUX/depdom/AttrImpl.o
                0x0000000000266800                _ZTVN11xercesc_2_88AttrImplE
 *fill*         0x00000000002669b0       0x10 00
 .data.rel.ro._ZTVN11xercesc_2_810XMLDeleterE
                0x00000000002669c0       0x20 LINUX/depdom/AttrImpl.o
                0x00000000002669c0                _ZTVN11xercesc_2_810XMLDeleterE
 .data.rel.ro._ZTIN11xercesc_2_810XMLDeleterE
                0x00000000002669e0       0x10 LINUX/depdom/AttrImpl.o
                0x00000000002669e0                _ZTIN11xercesc_2_810XMLDeleterE
 .data.rel.ro._ZTIN11xercesc_2_88AttrImplE
                0x00000000002669f0       0x18 LINUX/depdom/AttrImpl.o
                0x00000000002669f0                _ZTIN11xercesc_2_88AttrImplE
 *fill*         0x0000000000266a08        0x8 00
 .data.rel.ro._ZTIN11xercesc_2_830ArrayIndexOutOfBoundsExceptionE
                0x0000000000266a10       0x18 LINUX/depdom/AttrImpl.o
                0x0000000000266a10                _ZTIN11xercesc_2_830ArrayIndexOutOfBoundsExceptionE
 *fill*         0x0000000000266a28       0x18 00
 .data.rel.ro._ZTVN11xercesc_2_830ArrayIndexOutOfBoundsExceptionE
                0x0000000000266a40       0x30 LINUX/depdom/AttrImpl.o
                0x0000000000266a40                _ZTVN11xercesc_2_830ArrayIndexOutOfBoundsExceptionE
 *fill*         0x0000000000266a70       0x10 00
 .data.rel.ro._ZTVN11xercesc_2_811AttrMapImplE
                0x0000000000266a80       0xb0 LINUX/depdom/AttrMapImpl.o
                0x0000000000266a80                _ZTVN11xercesc_2_811AttrMapImplE
 .data.rel.ro._ZTIN11xercesc_2_811AttrMapImplE
                0x0000000000266b30       0x18 LINUX/depdom/AttrMapImpl.o
                0x0000000000266b30                _ZTIN11xercesc_2_811AttrMapImplE
 *fill*         0x0000000000266b48       0x18 00
 .data.rel.ro._ZTVN11xercesc_2_810AttrNSImplE
                0x0000000000266b60      0x1b0 LINUX/depdom/AttrNSImpl.o
                0x0000000000266b60                _ZTVN11xercesc_2_810AttrNSImplE
 .data.rel.ro._ZTIN11xercesc_2_810AttrNSImplE
                0x0000000000266d10       0x18 LINUX/depdom/AttrNSImpl.o
                0x0000000000266d10                _ZTIN11xercesc_2_810AttrNSImplE
 *fill*         0x0000000000266d28       0x18 00
 .data.rel.ro._ZTVN11xercesc_2_816CDATASectionImplE
                0x0000000000266d40      0x1e0 LINUX/depdom/CDATASectionImpl.o
                0x0000000000266d40                _ZTVN11xercesc_2_816CDATASectionImplE
 .data.rel.ro._ZTIN11xercesc_2_816CDATASectionImplE
                0x0000000000266f20       0x18 LINUX/depdom/CDATASectionImpl.o
                0x0000000000266f20                _ZTIN11xercesc_2_816CDATASectionImplE
 *fill*         0x0000000000266f38        0x8 00
 .data.rel.ro._ZTVN11xercesc_2_817CharacterDataImplE
                0x0000000000266f40      0x1c8 LINUX/depdom/CharacterDataImpl.o
                0x0000000000266f40                _ZTVN11xercesc_2_817CharacterDataImplE
 *fill*         0x0000000000267108        0x8 00
 .data.rel.ro._ZTIN11xercesc_2_817CharacterDataImplE
                0x0000000000267110       0x18 LINUX/depdom/CharacterDataImpl.o
                0x0000000000267110                _ZTIN11xercesc_2_817CharacterDataImplE
 *fill*         0x0000000000267128       0x18 00
 .data.rel.ro._ZTVN11xercesc_2_89ChildNodeE
                0x0000000000267140      0x188 LINUX/depdom/ChildNode.o
                0x0000000000267140                _ZTVN11xercesc_2_89ChildNodeE
 *fill*         0x00000000002672c8        0x8 00
 .data.rel.ro._ZTIN11xercesc_2_89ChildNodeE
                0x00000000002672d0       0x18 LINUX/depdom/ChildNode.o
                0x00000000002672d0                _ZTIN11xercesc_2_89ChildNodeE
 *fill*         0x00000000002672e8       0x18 00
 .data.rel.ro._ZTVN11xercesc_2_811CommentImplE
                0x0000000000267300      0x1c8 LINUX/depdom/CommentImpl.o
                0x0000000000267300                _ZTVN11xercesc_2_811CommentImplE
 *fill*         0x00000000002674c8        0x8 00
 .data.rel.ro._ZTIN11xercesc_2_811CommentImplE
                0x00000000002674d0       0x18 LINUX/depdom/CommentImpl.o
                0x00000000002674d0                _ZTIN11xercesc_2_811CommentImplE
 *fill*         0x00000000002674e8       0x18 00
 .data.rel.ro._ZTVN11xercesc_2_816DeepNodeListImplE
                0x0000000000267500       0x48 LINUX/depdom/DeepNodeListImpl.o
                0x0000000000267500                _ZTVN11xercesc_2_816DeepNodeListImplE
 *fill*         0x0000000000267548        0x8 00
 .data.rel.ro._ZTIN11xercesc_2_816DeepNodeListImplE
                0x0000000000267550       0x18 LINUX/depdom/DeepNodeListImpl.o
                0x0000000000267550                _ZTIN11xercesc_2_816DeepNodeListImplE
 *fill*         0x0000000000267568       0x18 00
 .data.rel.ro._ZTVN11xercesc_2_820DocumentFragmentImplE
                0x0000000000267580      0x188 LINUX/depdom/DocumentFragmentImpl.o
                0x0000000000267580                _ZTVN11xercesc_2_820DocumentFragmentImplE
 *fill*         0x0000000000267708        0x8 00
 .data.rel.ro._ZTIN11xercesc_2_820DocumentFragmentImplE
                0x0000000000267710       0x18 LINUX/depdom/DocumentFragmentImpl.o
                0x0000000000267710                _ZTIN11xercesc_2_820DocumentFragmentImplE
 *fill*         0x0000000000267728       0x18 00
 .data.rel.ro._ZTVN11xercesc_2_812DocumentImplE
                0x0000000000267740      0x260 LINUX/depdom/DocumentImpl.o
                0x0000000000267740                _ZTVN11xercesc_2_812DocumentImplE
 .data.rel.ro._ZTIN11xercesc_2_812DocumentImplE
                0x00000000002679a0       0x18 LINUX/depdom/DocumentImpl.o
                0x00000000002679a0                _ZTIN11xercesc_2_812DocumentImplE
 *fill*         0x00000000002679b8        0x8 00
 .data.rel.ro._ZTIN11xercesc_2_824IllegalArgumentExceptionE
                0x00000000002679c0       0x18 LINUX/depdom/DocumentImpl.o
                0x00000000002679c0                _ZTIN11xercesc_2_824IllegalArgumentExceptionE
 *fill*         0x00000000002679d8        0x8 00
 .data.rel.ro._ZTVN11xercesc_2_824IllegalArgumentExceptionE
                0x00000000002679e0       0x30 LINUX/depdom/DocumentImpl.o
                0x00000000002679e0                _ZTVN11xercesc_2_824IllegalArgumentExceptionE
 .data.rel.ro._ZTIN11xercesc_2_822NoSuchElementExceptionE
                0x0000000000267a10       0x18 LINUX/depdom/DocumentImpl.o
                0x0000000000267a10                _ZTIN11xercesc_2_822NoSuchElementExceptionE
 *fill*         0x0000000000267a28       0x18 00
 .data.rel.ro._ZTVN11xercesc_2_822NoSuchElementExceptionE
                0x0000000000267a40       0x30 LINUX/depdom/DocumentImpl.o
                0x0000000000267a40                _ZTVN11xercesc_2_822NoSuchElementExceptionE
 *fill*         0x0000000000267a70       0x10 00
 .data.rel.ro._ZTVN11xercesc_2_811RefVectorOfINS_9RangeImplEEE
                0x0000000000267a80       0x48 LINUX/depdom/DocumentImpl.o
                0x0000000000267a80                _ZTVN11xercesc_2_811RefVectorOfINS_9RangeImplEEE
 *fill*         0x0000000000267ac8        0x8 00
 .data.rel.ro._ZTIN11xercesc_2_811RefVectorOfINS_9RangeImplEEE
                0x0000000000267ad0       0x18 LINUX/depdom/DocumentImpl.o
                0x0000000000267ad0                _ZTIN11xercesc_2_811RefVectorOfINS_9RangeImplEEE
 *fill*         0x0000000000267ae8        0x8 00
 .data.rel.ro._ZTIN11xercesc_2_815BaseRefVectorOfINS_9RangeImplEEE
                0x0000000000267af0       0x18 LINUX/depdom/DocumentImpl.o
                0x0000000000267af0                _ZTIN11xercesc_2_815BaseRefVectorOfINS_9RangeImplEEE
 *fill*         0x0000000000267b08        0x8 00
 .data.rel.ro._ZTIN11xercesc_2_87XMemoryE
                0x0000000000267b10       0x10 LINUX/depdom/DocumentImpl.o
                0x0000000000267b10                _ZTIN11xercesc_2_87XMemoryE
 .data.rel.ro._ZTVN11xercesc_2_815BaseRefVectorOfINS_9RangeImplEEE
                0x0000000000267b20       0x48 LINUX/depdom/DocumentImpl.o
                0x0000000000267b20                _ZTVN11xercesc_2_815BaseRefVectorOfINS_9RangeImplEEE
 *fill*         0x0000000000267b68       0x18 00
 .data.rel.ro._ZTVN11xercesc_2_811RefVectorOfINS_14TreeWalkerImplEEE
                0x0000000000267b80       0x48 LINUX/depdom/DocumentImpl.o
                0x0000000000267b80                _ZTVN11xercesc_2_811RefVectorOfINS_14TreeWalkerImplEEE
 *fill*         0x0000000000267bc8        0x8 00
 .data.rel.ro._ZTIN11xercesc_2_811RefVectorOfINS_14TreeWalkerImplEEE
                0x0000000000267bd0       0x18 LINUX/depdom/DocumentImpl.o
                0x0000000000267bd0                _ZTIN11xercesc_2_811RefVectorOfINS_14TreeWalkerImplEEE
 *fill*         0x0000000000267be8        0x8 00
 .data.rel.ro._ZTIN11xercesc_2_815BaseRefVectorOfINS_14TreeWalkerImplEEE
                0x0000000000267bf0       0x18 LINUX/depdom/DocumentImpl.o
                0x0000000000267bf0                _ZTIN11xercesc_2_815BaseRefVectorOfINS_14TreeWalkerImplEEE
 *fill*         0x0000000000267c08       0x18 00
 .data.rel.ro._ZTVN11xercesc_2_815BaseRefVectorOfINS_14TreeWalkerImplEEE
                0x0000000000267c20       0x48 LINUX/depdom/DocumentImpl.o
                0x0000000000267c20                _ZTVN11xercesc_2_815BaseRefVectorOfINS_14TreeWalkerImplEEE
 *fill*         0x0000000000267c68       0x18 00
 .data.rel.ro._ZTVN11xercesc_2_811RefVectorOfINS_16NodeIteratorImplEEE
                0x0000000000267c80       0x48 LINUX/depdom/DocumentImpl.o
                0x0000000000267c80                _ZTVN11xercesc_2_811RefVectorOfINS_16NodeIteratorImplEEE
 *fill*         0x0000000000267cc8        0x8 00
 .data.rel.ro._ZTIN11xercesc_2_811RefVectorOfINS_16NodeIteratorImplEEE
                0x0000000000267cd0       0x18 LINUX/depdom/DocumentImpl.o
                0x0000000000267cd0                _ZTIN11xercesc_2_811RefVectorOfINS_16NodeIteratorImplEEE
 *fill*         0x0000000000267ce8        0x8 00
 .data.rel.ro._ZTIN11xercesc_2_815BaseRefVectorOfINS_16NodeIteratorImplEEE
                0x0000000000267cf0       0x18 LINUX/depdom/DocumentImpl.o
                0x0000000000267cf0                _ZTIN11xercesc_2_815BaseRefVectorOfINS_16NodeIteratorImplEEE
 *fill*         0x0000000000267d08       0x18 00
 .data.rel.ro._ZTVN11xercesc_2_815BaseRefVectorOfINS_16NodeIteratorImplEEE
                0x0000000000267d20       0x48 LINUX/depdom/DocumentImpl.o
                0x0000000000267d20                _ZTVN11xercesc_2_815BaseRefVectorOfINS_16NodeIteratorImplEEE
 *fill*         0x0000000000267d68       0x18 00
 .data.rel.ro._ZTVN11xercesc_2_816DocumentTypeImplE
                0x0000000000267d80      0x1d8 LINUX/depdom/DocumentTypeImpl.o
                0x0000000000267d80                _ZTVN11xercesc_2_816DocumentTypeImplE
 *fill*         0x0000000000267f58        0x8 00
 .data.rel.ro._ZTIN11xercesc_2_816DocumentTypeImplE
                0x0000000000267f60       0x18 LINUX/depdom/DocumentTypeImpl.o
                0x0000000000267f60                _ZTIN11xercesc_2_816DocumentTypeImplE
 *fill*         0x0000000000267f78        0x8 00
 .data.rel.ro._ZTVN11xercesc_2_816DOM_DOMExceptionE
                0x0000000000267f80       0x20 LINUX/depdom/DOM_DOMException.o
                0x0000000000267f80                _ZTVN11xercesc_2_816DOM_DOMExceptionE
 .data.rel.ro._ZTIN11xercesc_2_816DOM_DOMExceptionE
                0x0000000000267fa0       0x10 LINUX/depdom/DOM_DOMException.o
                0x0000000000267fa0                _ZTIN11xercesc_2_816DOM_DOMExceptionE
 *fill*         0x0000000000267fb0       0x10 00
 .data.rel.ro._ZTVN11xercesc_2_814DOM_NodeFilterE
                0x0000000000267fc0       0x28 LINUX/depdom/DOM_NodeFilter.o
                0x0000000000267fc0                _ZTVN11xercesc_2_814DOM_NodeFilterE
 *fill*         0x0000000000267fe8        0x8 00
 .data.rel.ro._ZTIN11xercesc_2_814DOM_NodeFilterE
                0x0000000000267ff0       0x10 LINUX/depdom/DOM_NodeFilter.o
                0x0000000000267ff0                _ZTIN11xercesc_2_814DOM_NodeFilterE
 .data.rel.ro._ZTVN11xercesc_2_89DOMParserE
                0x0000000000268000      0x268 LINUX/depdom/DOMParser.o
                0x0000000000268000                _ZTVN11xercesc_2_89DOMParserE
 *fill*         0x0000000000268268       0x18 00
 .data.rel.ro._ZTVN11xercesc_2_815ContentSpecNodeE
                0x0000000000268280       0x38 LINUX/depdom/DOMParser.o
                0x0000000000268280                _ZTVN11xercesc_2_815ContentSpecNodeE
 *fill*         0x00000000002682b8        0x8 00
 .data.rel.ro._ZTVN11xercesc_2_813XMLAttDefListE
                0x00000000002682c0       0x90 LINUX/depdom/DOMParser.o
                0x00000000002682c0                _ZTVN11xercesc_2_813XMLAttDefListE
 *fill*         0x0000000000268350       0x10 00
 .data.rel.ro._ZTVN11xercesc_2_813DTDEntityDeclE
                0x0000000000268360       0x50 LINUX/depdom/DOMParser.o
                0x0000000000268360                _ZTVN11xercesc_2_813DTDEntityDeclE
 *fill*         0x00000000002683b0       0x10 00
 .data.rel.ro._ZTVN11xercesc_2_810XMLRefInfoE
                0x00000000002683c0       0x38 LINUX/depdom/DOMParser.o
                0x00000000002683c0                _ZTVN11xercesc_2_810XMLRefInfoE
 *fill*         0x00000000002683f8        0x8 00
 .data.rel.ro._ZTIN11xercesc_2_815ContentSpecNodeE
                0x0000000000268400       0x38 LINUX/depdom/DOMParser.o
                0x0000000000268400                _ZTIN11xercesc_2_815ContentSpecNodeE
 *fill*         0x0000000000268438        0x8 00
 .data.rel.ro._ZTIN11xercesc_2_89DOMParserE
                0x0000000000268440       0x68 LINUX/depdom/DOMParser.o
                0x0000000000268440                _ZTIN11xercesc_2_89DOMParserE
 *fill*         0x00000000002684a8       0x18 00
 .data.rel.ro._ZTIN11xercesc_2_813XMLAttDefListE
                0x00000000002684c0       0x38 LINUX/depdom/DOMParser.o
                0x00000000002684c0                _ZTIN11xercesc_2_813XMLAttDefListE
 *fill*         0x00000000002684f8        0x8 00
 .data.rel.ro._ZTIN11xercesc_2_813DTDEntityDeclE
                0x0000000000268500       0x18 LINUX/depdom/DOMParser.o
                0x0000000000268500                _ZTIN11xercesc_2_813DTDEntityDeclE
 *fill*         0x0000000000268518        0x8 00
 .data.rel.ro._ZTIN11xercesc_2_810XMLRefInfoE
                0x0000000000268520       0x38 LINUX/depdom/DOMParser.o
                0x0000000000268520                _ZTIN11xercesc_2_810XMLRefInfoE
 *fill*         0x0000000000268558        0x8 00
 .data.rel.ro._ZTIN11xercesc_2_813XSerializableE
                0x0000000000268560       0x10 LINUX/depdom/DOMParser.o
                0x0000000000268560                _ZTIN11xercesc_2_813XSerializableE
 .data.rel.ro._ZTIN11xercesc_2_818XMLDocumentHandlerE
                0x0000000000268570       0x10 LINUX/depdom/DOMParser.o
                0x0000000000268570                _ZTIN11xercesc_2_818XMLDocumentHandlerE
 .data.rel.ro._ZTIN11xercesc_2_816XMLErrorReporterE
                0x0000000000268580       0x10 LINUX/depdom/DOMParser.o
                0x0000000000268580                _ZTIN11xercesc_2_816XMLErrorReporterE
 .data.rel.ro._ZTIN11xercesc_2_816XMLEntityHandlerE
                0x0000000000268590       0x10 LINUX/depdom/DOMParser.o
                0x0000000000268590                _ZTIN11xercesc_2_816XMLEntityHandlerE
 .data.rel.ro._ZTIN11xercesc_2_814DocTypeHandlerE
                0x00000000002685a0       0x10 LINUX/depdom/DOMParser.o
                0x00000000002685a0                _ZTIN11xercesc_2_814DocTypeHandlerE
 *fill*         0x00000000002685b0       0x10 00
 .data.rel.ro._ZTVN11xercesc_2_813XSerializableE
                0x00000000002685c0       0x38 LINUX/depdom/DOMParser.o
                0x00000000002685c0                _ZTVN11xercesc_2_813XSerializableE
 *fill*         0x00000000002685f8        0x8 00
 .data.rel.ro._ZTIN11xercesc_2_811IOExceptionE
                0x0000000000268600       0x18 LINUX/depdom/DOMParser.o
                0x0000000000268600                _ZTIN11xercesc_2_811IOExceptionE
 *fill*         0x0000000000268618        0x8 00
 .data.rel.ro._ZTVN11xercesc_2_811IOExceptionE
                0x0000000000268620       0x30 LINUX/depdom/DOMParser.o
                0x0000000000268620                _ZTVN11xercesc_2_811IOExceptionE
 .data.rel.ro._ZTIN11xercesc_2_819EmptyStackExceptionE
                0x0000000000268650       0x18 LINUX/depdom/DOMParser.o
                0x0000000000268650                _ZTIN11xercesc_2_819EmptyStackExceptionE
 *fill*         0x0000000000268668       0x18 00
 .data.rel.ro._ZTVN11xercesc_2_819EmptyStackExceptionE
                0x0000000000268680       0x30 LINUX/depdom/DOMParser.o
                0x0000000000268680                _ZTVN11xercesc_2_819EmptyStackExceptionE
 *fill*         0x00000000002686b0       0x10 00
 .data.rel.ro._ZTVN11xercesc_2_814DocTypeHandlerE
                0x00000000002686c0       0xa0 LINUX/depdom/DOMParser.o
                0x00000000002686c0                _ZTVN11xercesc_2_814DocTypeHandlerE
 .data.rel.ro._ZTVN11xercesc_2_816XMLEntityHandlerE
                0x0000000000268760       0x50 LINUX/depdom/DOMParser.o
                0x0000000000268760                _ZTVN11xercesc_2_816XMLEntityHandlerE
 *fill*         0x00000000002687b0       0x10 00
 .data.rel.ro._ZTVN11xercesc_2_816XMLErrorReporterE
                0x00000000002687c0       0x30 LINUX/depdom/DOMParser.o
                0x00000000002687c0                _ZTVN11xercesc_2_816XMLErrorReporterE
 *fill*         0x00000000002687f0       0x10 00
 .data.rel.ro._ZTVN11xercesc_2_818XMLDocumentHandlerE
                0x0000000000268800       0x88 LINUX/depdom/DOMParser.o
                0x0000000000268800                _ZTVN11xercesc_2_818XMLDocumentHandlerE
 *fill*         0x0000000000268888        0x8 00
 .data.rel.ro._ZTIN11xercesc_2_820OutOfMemoryExceptionE
                0x0000000000268890       0x18 LINUX/depdom/DOMParser.o
                0x0000000000268890                _ZTIN11xercesc_2_820OutOfMemoryExceptionE
 *fill*         0x00000000002688a8       0x18 00
 .data.rel.ro._ZTVN11xercesc_2_818DOM_RangeExceptionE
                0x00000000002688c0       0x20 LINUX/depdom/DOM_RangeException.o
                0x00000000002688c0                _ZTVN11xercesc_2_818DOM_RangeExceptionE
 .data.rel.ro._ZTIN11xercesc_2_818DOM_RangeExceptionE
                0x00000000002688e0       0x18 LINUX/depdom/DOM_RangeException.o
                0x00000000002688e0                _ZTIN11xercesc_2_818DOM_RangeExceptionE
 *fill*         0x00000000002688f8        0x8 00
 .data.rel.ro._ZTVN11xercesc_2_821ElementDefinitionImplE
                0x0000000000268900      0x188 LINUX/depdom/ElementDefinitionImpl.o
                0x0000000000268900                _ZTVN11xercesc_2_821ElementDefinitionImplE
 *fill*         0x0000000000268a88        0x8 00
 .data.rel.ro._ZTIN11xercesc_2_821ElementDefinitionImplE
                0x0000000000268a90       0x18 LINUX/depdom/ElementDefinitionImpl.o
                0x0000000000268a90                _ZTIN11xercesc_2_821ElementDefinitionImplE
 *fill*         0x0000000000268aa8       0x18 00
 .data.rel.ro._ZTVN11xercesc_2_811ElementImplE
                0x0000000000268ac0      0x288 LINUX/depdom/ElementImpl.o
                0x0000000000268ac0                _ZTVN11xercesc_2_811ElementImplE
 *fill*         0x0000000000268d48        0x8 00
 .data.rel.ro._ZTIN11xercesc_2_811ElementImplE
                0x0000000000268d50       0x18 LINUX/depdom/ElementImpl.o
                0x0000000000268d50                _ZTIN11xercesc_2_811ElementImplE
 *fill*         0x0000000000268d68       0x18 00
 .data.rel.ro._ZTVN11xercesc_2_813ElementNSImplE
                0x0000000000268d80      0x288 LINUX/depdom/ElementNSImpl.o
                0x0000000000268d80                _ZTVN11xercesc_2_813ElementNSImplE
 *fill*         0x0000000000269008        0x8 00
 .data.rel.ro._ZTIN11xercesc_2_813ElementNSImplE
                0x0000000000269010       0x18 LINUX/depdom/ElementNSImpl.o
                0x0000000000269010                _ZTIN11xercesc_2_813ElementNSImplE
 *fill*         0x0000000000269028       0x18 00
 .data.rel.ro._ZTVN11xercesc_2_810EntityImplE
                0x0000000000269040      0x1b8 LINUX/depdom/EntityImpl.o
                0x0000000000269040                _ZTVN11xercesc_2_810EntityImplE
 *fill*         0x00000000002691f8        0x8 00
 .data.rel.ro._ZTIN11xercesc_2_810EntityImplE
                0x0000000000269200       0x18 LINUX/depdom/EntityImpl.o
                0x0000000000269200                _ZTIN11xercesc_2_810EntityImplE
 *fill*         0x0000000000269218        0x8 00
 .data.rel.ro._ZTVN11xercesc_2_819EntityReferenceImplE
                0x0000000000269220      0x188 LINUX/depdom/EntityReferenceImpl.o
                0x0000000000269220                _ZTVN11xercesc_2_819EntityReferenceImplE
 *fill*         0x00000000002693a8        0x8 00
 .data.rel.ro._ZTIN11xercesc_2_819EntityReferenceImplE
                0x00000000002693b0       0x18 LINUX/depdom/EntityReferenceImpl.o
                0x00000000002693b0                _ZTIN11xercesc_2_819EntityReferenceImplE
 *fill*         0x00000000002693c8       0x18 00
 .data.rel.ro._ZTVN11xercesc_2_816NamedNodeMapImplE
                0x00000000002693e0       0x98 LINUX/depdom/NamedNodeMapImpl.o
                0x00000000002693e0                _ZTVN11xercesc_2_816NamedNodeMapImplE
 *fill*         0x0000000000269478        0x8 00
 .data.rel.ro._ZTIN11xercesc_2_816NamedNodeMapImplE
                0x0000000000269480       0x18 LINUX/depdom/NamedNodeMapImpl.o
                0x0000000000269480                _ZTIN11xercesc_2_816NamedNodeMapImplE
 *fill*         0x0000000000269498        0x8 00
 .data.rel.ro._ZTVN11xercesc_2_89NodeIDMapE
                0x00000000002694a0       0x20 LINUX/depdom/NodeIDMap.o
                0x00000000002694a0                _ZTVN11xercesc_2_89NodeIDMapE
 .data.rel.ro._ZTIN11xercesc_2_89NodeIDMapE
                0x00000000002694c0       0x18 LINUX/depdom/NodeIDMap.o
                0x00000000002694c0                _ZTIN11xercesc_2_89NodeIDMapE
 *fill*         0x00000000002694d8        0x8 00
 .data.rel.ro._ZTIN11xercesc_2_816RuntimeExceptionE
                0x00000000002694e0       0x18 LINUX/depdom/NodeIDMap.o
                0x00000000002694e0                _ZTIN11xercesc_2_816RuntimeExceptionE
 *fill*         0x00000000002694f8        0x8 00
 .data.rel.ro._ZTVN11xercesc_2_816RuntimeExceptionE
                0x0000000000269500       0x30 LINUX/depdom/NodeIDMap.o
                0x0000000000269500                _ZTVN11xercesc_2_816RuntimeExceptionE
 *fill*         0x0000000000269530       0x10 00
 .data.rel.ro._ZTVN11xercesc_2_88NodeImplE
                0x0000000000269540      0x188 LINUX/depdom/NodeImpl.o
                0x0000000000269540                _ZTVN11xercesc_2_88NodeImplE
 *fill*         0x00000000002696c8        0x8 00
 .data.rel.ro._ZTIN11xercesc_2_88NodeImplE
                0x00000000002696d0       0x18 LINUX/depdom/NodeImpl.o
                0x00000000002696d0                _ZTIN11xercesc_2_88NodeImplE
 *fill*         0x00000000002696e8       0x18 00
 .data.rel.ro._ZTVN11xercesc_2_816NodeIteratorImplE
                0x0000000000269700       0x30 LINUX/depdom/NodeIteratorImpl.o
                0x0000000000269700                _ZTVN11xercesc_2_816NodeIteratorImplE
 .data.rel.ro._ZTIN11xercesc_2_816NodeIteratorImplE
                0x0000000000269730       0x18 LINUX/depdom/NodeIteratorImpl.o
                0x0000000000269730                _ZTIN11xercesc_2_816NodeIteratorImplE
 *fill*         0x0000000000269748       0x18 00
 .data.rel.ro._ZTVN11xercesc_2_812NodeListImplE
                0x0000000000269760       0x40 LINUX/depdom/NodeListImpl.o
                0x0000000000269760                _ZTVN11xercesc_2_812NodeListImplE
 .data.rel.ro._ZTIN11xercesc_2_812NodeListImplE
                0x00000000002697a0       0x18 LINUX/depdom/NodeListImpl.o
                0x00000000002697a0                _ZTIN11xercesc_2_812NodeListImplE
 *fill*         0x00000000002697b8        0x8 00
 .data.rel.ro._ZTVN11xercesc_2_812NotationImplE
                0x00000000002697c0      0x1a8 LINUX/depdom/NotationImpl.o
                0x00000000002697c0                _ZTVN11xercesc_2_812NotationImplE
 *fill*         0x0000000000269968        0x8 00
 .data.rel.ro._ZTIN11xercesc_2_812NotationImplE
                0x0000000000269970       0x18 LINUX/depdom/NotationImpl.o
                0x0000000000269970                _ZTIN11xercesc_2_812NotationImplE
 *fill*         0x0000000000269988       0x18 00
 .data.rel.ro._ZTVN11xercesc_2_810ParentNodeE
                0x00000000002699a0      0x188 LINUX/depdom/ParentNode.o
                0x00000000002699a0                _ZTVN11xercesc_2_810ParentNodeE
 *fill*         0x0000000000269b28        0x8 00
 .data.rel.ro._ZTIN11xercesc_2_810ParentNodeE
                0x0000000000269b30       0x18 LINUX/depdom/ParentNode.o
                0x0000000000269b30                _ZTIN11xercesc_2_810ParentNodeE
 *fill*         0x0000000000269b48       0x18 00
 .data.rel.ro._ZTVN11xercesc_2_825ProcessingInstructionImplE
                0x0000000000269b60      0x1a0 LINUX/depdom/ProcessingInstructionImpl.o
                0x0000000000269b60                _ZTVN11xercesc_2_825ProcessingInstructionImplE
 .data.rel.ro._ZTIN11xercesc_2_825ProcessingInstructionImplE
                0x0000000000269d00       0x18 LINUX/depdom/ProcessingInstructionImpl.o
                0x0000000000269d00                _ZTIN11xercesc_2_825ProcessingInstructionImplE
 *fill*         0x0000000000269d18        0x8 00
 .data.rel.ro._ZTVN11xercesc_2_89RangeImplE
                0x0000000000269d20       0x30 LINUX/depdom/RangeImpl.o
                0x0000000000269d20                _ZTVN11xercesc_2_89RangeImplE
 .data.rel.ro._ZTIN11xercesc_2_89RangeImplE
                0x0000000000269d50       0x18 LINUX/depdom/RangeImpl.o
                0x0000000000269d50                _ZTIN11xercesc_2_89RangeImplE
 *fill*         0x0000000000269d68       0x18 00
 .data.rel.ro._ZTVN11xercesc_2_811RefVectorOfINS_8NodeImplEEE
                0x0000000000269d80       0x48 LINUX/depdom/RangeImpl.o
                0x0000000000269d80                _ZTVN11xercesc_2_811RefVectorOfINS_8NodeImplEEE
 *fill*         0x0000000000269dc8        0x8 00
 .data.rel.ro._ZTIN11xercesc_2_811RefVectorOfINS_8NodeImplEEE
                0x0000000000269dd0       0x18 LINUX/depdom/RangeImpl.o
                0x0000000000269dd0                _ZTIN11xercesc_2_811RefVectorOfINS_8NodeImplEEE
 *fill*         0x0000000000269de8        0x8 00
 .data.rel.ro._ZTIN11xercesc_2_815BaseRefVectorOfINS_8NodeImplEEE
                0x0000000000269df0       0x18 LINUX/depdom/RangeImpl.o
                0x0000000000269df0                _ZTIN11xercesc_2_815BaseRefVectorOfINS_8NodeImplEEE
 *fill*         0x0000000000269e08       0x18 00
 .data.rel.ro._ZTVN11xercesc_2_815BaseRefVectorOfINS_8NodeImplEEE
                0x0000000000269e20       0x48 LINUX/depdom/RangeImpl.o
                0x0000000000269e20                _ZTVN11xercesc_2_815BaseRefVectorOfINS_8NodeImplEEE
 *fill*         0x0000000000269e68       0x18 00
 .data.rel.ro._ZTVN11xercesc_2_814RefCountedImplE
                0x0000000000269e80       0x30 LINUX/depdom/RefCountedImpl.o
                0x0000000000269e80                _ZTVN11xercesc_2_814RefCountedImplE
 .data.rel.ro._ZTIN11xercesc_2_814RefCountedImplE
                0x0000000000269eb0       0x18 LINUX/depdom/RefCountedImpl.o
                0x0000000000269eb0                _ZTIN11xercesc_2_814RefCountedImplE
 *fill*         0x0000000000269ec8       0x18 00
 .data.rel.ro._ZTVN11xercesc_2_88TextImplE
                0x0000000000269ee0      0x1e0 LINUX/depdom/TextImpl.o
                0x0000000000269ee0                _ZTVN11xercesc_2_88TextImplE
 .data.rel.ro._ZTIN11xercesc_2_88TextImplE
                0x000000000026a0c0       0x18 LINUX/depdom/TextImpl.o
                0x000000000026a0c0                _ZTIN11xercesc_2_88TextImplE
 *fill*         0x000000000026a0d8        0x8 00
 .data.rel.ro._ZTVN11xercesc_2_814TreeWalkerImplE
                0x000000000026a0e0       0x30 LINUX/depdom/TreeWalkerImpl.o
                0x000000000026a0e0                _ZTVN11xercesc_2_814TreeWalkerImplE
 .data.rel.ro._ZTIN11xercesc_2_814TreeWalkerImplE
                0x000000000026a110       0x18 LINUX/depdom/TreeWalkerImpl.o
                0x000000000026a110                _ZTIN11xercesc_2_814TreeWalkerImplE
 *fill*         0x000000000026a128       0x18 00
 .data.rel.ro._ZTVN11xercesc_2_811XMLDeclImplE
                0x000000000026a140      0x1b8 LINUX/depdom/XMLDeclImpl.o
                0x000000000026a140                _ZTVN11xercesc_2_811XMLDeclImplE
 *fill*         0x000000000026a2f8        0x8 00
 .data.rel.ro._ZTIN11xercesc_2_811XMLDeclImplE
                0x000000000026a300       0x18 LINUX/depdom/XMLDeclImpl.o
                0x000000000026a300                _ZTIN11xercesc_2_811XMLDeclImplE

.dynamic        0x000000000026a318      0x1e0
 *(.dynamic)
 .dynamic       0x000000000026a318      0x1e0 /usr/lib/gcc/x86_64-redhat-linux/4.4.7/../../../../lib64/crti.o
                0x000000000026a318                _DYNAMIC

.got            0x000000000026a4f8      0x448
 *(.got)
 .got           0x000000000026a4f8      0x448 /usr/lib/gcc/x86_64-redhat-linux/4.4.7/../../../../lib64/crti.o
 *(.igot)
                0x000000000026a940                . = (. DATA_SEGMENT_RELRO_END 0x18)

.got.plt        0x000000000026a940      0xed8
 *(.got.plt)
 .got.plt       0x000000000026a940      0xed8 /usr/lib/gcc/x86_64-redhat-linux/4.4.7/../../../../lib64/crti.o
                0x000000000026a940                _GLOBAL_OFFSET_TABLE_
 *(.igot.plt)

.data           0x000000000026b818       0x10
 *(.data .data.* .gnu.linkonce.d.*)
 .data          0x000000000026b818        0x0 /usr/lib/gcc/x86_64-redhat-linux/4.4.7/../../../../lib64/crti.o
 .data          0x000000000026b818        0x0 /usr/lib/gcc/x86_64-redhat-linux/4.4.7/crtbeginS.o
 .data          0x000000000026b818        0x0 LINUX/depdom/AttrImpl.o
 .data.DW.ref.__gxx_personality_v0
                0x000000000026b818        0x8 LINUX/depdom/AttrImpl.o
                0x000000000026b818                DW.ref.__gxx_personality_v0
 .data          0x000000000026b820        0x0 LINUX/depdom/AttrMapImpl.o
 .data          0x000000000026b820        0x0 LINUX/depdom/AttrNSImpl.o
 .data          0x000000000026b820        0x0 LINUX/depdom/CDATASectionImpl.o
 .data          0x000000000026b820        0x0 LINUX/depdom/CharacterDataImpl.o
 .data          0x000000000026b820        0x0 LINUX/depdom/ChildNode.o
 .data          0x000000000026b820        0x0 LINUX/depdom/CommentImpl.o
 .data          0x000000000026b820        0x0 LINUX/depdom/DeepNodeListImpl.o
 .data          0x000000000026b820        0x0 LINUX/depdom/DocumentFragmentImpl.o
 .data          0x000000000026b820        0x0 LINUX/depdom/DocumentImpl.o
 .data          0x000000000026b820        0x0 LINUX/depdom/DocumentTypeImpl.o
 .data          0x000000000026b820        0x0 LINUX/depdom/DOM_Attr.o
 .data          0x000000000026b820        0x0 LINUX/depdom/DOM_CDATASection.o
 .data          0x000000000026b820        0x0 LINUX/depdom/DOM_CharacterData.o
 .data          0x000000000026b820        0x0 LINUX/depdom/DOM_Comment.o
 .data          0x000000000026b820        0x0 LINUX/depdom/DOM_DocumentFragment.o
 .data          0x000000000026b820        0x0 LINUX/depdom/DOM_Document.o
 .data          0x000000000026b820        0x0 LINUX/depdom/DOM_DocumentType.o
 .data          0x000000000026b820        0x0 LINUX/depdom/DOM_DOMException.o
 .data          0x000000000026b820        0x0 LINUX/depdom/DOM_DOMImplementation.o
 .data          0x000000000026b820        0x0 LINUX/depdom/DOM_Element.o
 .data          0x000000000026b820        0x0 LINUX/depdom/DOM_Entity.o
 .data          0x000000000026b820        0x0 LINUX/depdom/DOM_EntityReference.o
 .data          0x000000000026b820        0x0 LINUX/depdom/DomMemDebug.o
 .data          0x000000000026b820        0x0 LINUX/depdom/DOM_NamedNodeMap.o
 .data          0x000000000026b820        0x0 LINUX/depdom/DOM_NodeFilter.o
 .data          0x000000000026b820        0x0 LINUX/depdom/DOM_NodeIterator.o
 .data          0x000000000026b820        0x0 LINUX/depdom/DOM_NodeList.o
 .data          0x000000000026b820        0x0 LINUX/depdom/DOM_Node.o
 .data          0x000000000026b820        0x0 LINUX/depdom/DOM_Notation.o
 .data          0x000000000026b820        0x0 LINUX/depdom/DOMParser.o
 .data.DW.ref._ZTIN11xercesc_2_820OutOfMemoryExceptionE
                0x000000000026b820        0x8 LINUX/depdom/DOMParser.o
                0x000000000026b820                DW.ref._ZTIN11xercesc_2_820OutOfMemoryExceptionE
 .data          0x000000000026b828        0x0 LINUX/depdom/DOM_ProcessingInstruction.o
 .data          0x000000000026b828        0x0 LINUX/depdom/DOM_RangeException.o
 .data          0x000000000026b828        0x0 LINUX/depdom/DOM_Range.o
 .data          0x000000000026b828        0x0 LINUX/depdom/DOMString.o
 .data          0x000000000026b828        0x0 LINUX/depdom/DOM_Text.o
 .data          0x000000000026b828        0x0 LINUX/depdom/DOM_TreeWalker.o
 .data          0x000000000026b828        0x0 LINUX/depdom/DOM_XMLDecl.o
 .data          0x000000000026b828        0x0 LINUX/depdom/DStringPool.o
 .data          0x000000000026b828        0x0 LINUX/depdom/ElementDefinitionImpl.o
 .data          0x000000000026b828        0x0 LINUX/depdom/ElementImpl.o
 .data          0x000000000026b828        0x0 LINUX/depdom/ElementNSImpl.o
 .data          0x000000000026b828        0x0 LINUX/depdom/EntityImpl.o
 .data          0x000000000026b828        0x0 LINUX/depdom/EntityReferenceImpl.o
 .data          0x000000000026b828        0x0 LINUX/depdom/NamedNodeMapImpl.o
 .data          0x000000000026b828        0x0 LINUX/depdom/NodeIDMap.o
 .data          0x000000000026b828        0x0 LINUX/depdom/NodeImpl.o
 .data          0x000000000026b828        0x0 LINUX/depdom/NodeIteratorImpl.o
 .data          0x000000000026b828        0x0 LINUX/depdom/NodeListImpl.o
 .data          0x000000000026b828        0x0 LINUX/depdom/NodeVector.o
 .data          0x000000000026b828        0x0 LINUX/depdom/NotationImpl.o
 .data          0x000000000026b828        0x0 LINUX/depdom/ParentNode.o
 .data          0x000000000026b828        0x0 LINUX/depdom/ProcessingInstructionImpl.o
 .data          0x000000000026b828        0x0 LINUX/depdom/RangeImpl.o
 .data          0x000000000026b828        0x0 LINUX/depdom/RefCountedImpl.o
 .data          0x000000000026b828        0x0 LINUX/depdom/TextImpl.o
 .data          0x000000000026b828        0x0 LINUX/depdom/TreeWalkerImpl.o
 .data          0x000000000026b828        0x0 LINUX/depdom/XMLDeclImpl.o
 .data          0x000000000026b828        0x0 /usr/lib/gcc/x86_64-redhat-linux/4.4.7/crtendS.o
 .data          0x000000000026b828        0x0 /usr/lib/gcc/x86_64-redhat-linux/4.4.7/../../../../lib64/crtn.o

.data1
 *(.data1)

.sharable_data  0x0000000000400000        0x0
                0x0000000000400000                PROVIDE (__sharable_data_start, .)
 *(.sharable_data .sharable_data.* .gnu.linkonce.shrd.*)
                0x0000000000400000                . = ALIGN ((. != 0x0)?0x200000:0x1)
                0x0000000000400000                PROVIDE (__sharable_data_end, .)
                0x0000000000400000                _edata = .
                0x0000000000400000                PROVIDE (edata, .)
                0x0000000000400000                __bss_start = .

.bss            0x000000000026b840      0x2b0
 *(.dynbss)
 .dynbss        0x0000000000000000        0x0 /usr/lib/gcc/x86_64-redhat-linux/4.4.7/../../../../lib64/crti.o
 *(.bss .bss.* .gnu.linkonce.b.*)
 .bss           0x000000000026b840        0x0 /usr/lib/gcc/x86_64-redhat-linux/4.4.7/../../../../lib64/crti.o
 .bss           0x000000000026b840       0x10 /usr/lib/gcc/x86_64-redhat-linux/4.4.7/crtbeginS.o
 .bss           0x000000000026b850        0x0 LINUX/depdom/AttrImpl.o
 .bss           0x000000000026b850        0x0 LINUX/depdom/AttrMapImpl.o
 .bss           0x000000000026b850        0x0 LINUX/depdom/AttrNSImpl.o
 .bss           0x000000000026b850       0x20 LINUX/depdom/CDATASectionImpl.o
 .bss           0x000000000026b870        0x0 LINUX/depdom/CharacterDataImpl.o
 .bss           0x000000000026b870        0x0 LINUX/depdom/ChildNode.o
 .bss           0x000000000026b870       0x20 LINUX/depdom/CommentImpl.o
 .bss           0x000000000026b890       0x20 LINUX/depdom/DeepNodeListImpl.o
 .bss           0x000000000026b8b0       0x20 LINUX/depdom/DocumentFragmentImpl.o
 *fill*         0x000000000026b8d0       0x10 00
 .bss           0x000000000026b8e0       0x58 LINUX/depdom/DocumentImpl.o
 .bss           0x000000000026b938        0x0 LINUX/depdom/DocumentTypeImpl.o
 .bss           0x000000000026b938        0x0 LINUX/depdom/DOM_Attr.o
 .bss           0x000000000026b938        0x0 LINUX/depdom/DOM_CDATASection.o
 .bss           0x000000000026b938        0x0 LINUX/depdom/DOM_CharacterData.o
 .bss           0x000000000026b938        0x0 LINUX/depdom/DOM_Comment.o
 .bss           0x000000000026b938        0x0 LINUX/depdom/DOM_DocumentFragment.o
 .bss           0x000000000026b938        0x0 LINUX/depdom/DOM_Document.o
 .bss           0x000000000026b938        0x0 LINUX/depdom/DOM_DocumentType.o
 .bss           0x000000000026b938        0x0 LINUX/depdom/DOM_DOMException.o
 *fill*         0x000000000026b938        0x8 00
 .bss           0x000000000026b940       0x78 LINUX/depdom/DOM_DOMImplementation.o
 .bss           0x000000000026b9b8        0x0 LINUX/depdom/DOM_Element.o
 .bss           0x000000000026b9b8        0x0 LINUX/depdom/DOM_Entity.o
 .bss           0x000000000026b9b8        0x0 LINUX/depdom/DOM_EntityReference.o
 .bss           0x000000000026b9b8        0x0 LINUX/depdom/DomMemDebug.o
 .bss           0x000000000026b9b8        0x0 LINUX/depdom/DOM_NamedNodeMap.o
 .bss           0x000000000026b9b8        0x0 LINUX/depdom/DOM_NodeFilter.o
 .bss           0x000000000026b9b8        0x0 LINUX/depdom/DOM_NodeIterator.o
 .bss           0x000000000026b9b8        0x0 LINUX/depdom/DOM_NodeList.o
 .bss           0x000000000026b9b8        0x0 LINUX/depdom/DOM_Node.o
 .bss           0x000000000026b9b8        0x0 LINUX/depdom/DOM_Notation.o
 .bss           0x000000000026b9b8        0x0 LINUX/depdom/DOMParser.o
 .bss           0x000000000026b9b8        0x0 LINUX/depdom/DOM_ProcessingInstruction.o
 .bss           0x000000000026b9b8        0x0 LINUX/depdom/DOM_RangeException.o
 .bss           0x000000000026b9b8        0x0 LINUX/depdom/DOM_Range.o
 *fill*         0x000000000026b9b8        0x8 00
 .bss           0x000000000026b9c0       0x68 LINUX/depdom/DOMString.o
                0x000000000026b9c0                _ZN11xercesc_2_89DOMString20gLiveStringDataCountE
                0x000000000026b9c4                _ZN11xercesc_2_89DOMString21gTotalStringDataCountE
                0x000000000026b9c8                _ZN11xercesc_2_89DOMString22gLiveStringHandleCountE
                0x000000000026b9cc                _ZN11xercesc_2_89DOMString23gTotalStringHandleCountE
                0x000000000026b9d0                _ZN11xercesc_2_815DOMStringHandle11freeListPtrE
                0x000000000026b9d8                _ZN11xercesc_2_815DOMStringHandle12blockListPtrE
 .bss           0x000000000026ba28        0x0 LINUX/depdom/DOM_Text.o
 .bss           0x000000000026ba28        0x0 LINUX/depdom/DOM_TreeWalker.o
 .bss           0x000000000026ba28        0x0 LINUX/depdom/DOM_XMLDecl.o
 .bss           0x000000000026ba28        0x0 LINUX/depdom/DStringPool.o
 .bss           0x000000000026ba28        0x0 LINUX/depdom/ElementDefinitionImpl.o
 *fill*         0x000000000026ba28        0x8 00
 .bss           0x000000000026ba30       0x20 LINUX/depdom/ElementImpl.o
 .bss           0x000000000026ba50        0x0 LINUX/depdom/ElementNSImpl.o
 .bss           0x000000000026ba50        0x0 LINUX/depdom/EntityImpl.o
 .bss           0x000000000026ba50        0x0 LINUX/depdom/EntityReferenceImpl.o
 .bss           0x000000000026ba50        0x8 LINUX/depdom/NamedNodeMapImpl.o
                0x000000000026ba50                _ZN11xercesc_2_816NamedNodeMapImpl18gLiveNamedNodeMapsE
                0x000000000026ba54                _ZN11xercesc_2_816NamedNodeMapImpl19gTotalNamedNodeMapsE
 .bss           0x000000000026ba58        0x0 LINUX/depdom/NodeIDMap.o
 *fill*         0x000000000026ba58        0x8 00
 .bss           0x000000000026ba60       0x48 LINUX/depdom/NodeImpl.o
                0x000000000026ba60                _ZN11xercesc_2_88NodeImpl14gLiveNodeImplsE
                0x000000000026ba64                _ZN11xercesc_2_88NodeImpl15gTotalNodeImplsE
 .bss           0x000000000026baa8        0x0 LINUX/depdom/NodeIteratorImpl.o
 .bss           0x000000000026baa8        0x0 LINUX/depdom/NodeListImpl.o
 .bss           0x000000000026baa8        0x0 LINUX/depdom/NodeVector.o
 .bss           0x000000000026baa8        0x0 LINUX/depdom/NotationImpl.o
 .bss           0x000000000026baa8        0x0 LINUX/depdom/ParentNode.o
 .bss           0x000000000026baa8        0x0 LINUX/depdom/ProcessingInstructionImpl.o
 .bss           0x000000000026baa8        0x0 LINUX/depdom/RangeImpl.o
 .bss           0x000000000026baa8        0x0 LINUX/depdom/RefCountedImpl.o
 *fill*         0x000000000026baa8        0x8 00
 .bss           0x000000000026bab0       0x20 LINUX/depdom/TextImpl.o
 .bss           0x000000000026bad0        0x0 LINUX/depdom/TreeWalkerImpl.o
 .bss           0x000000000026bad0       0x20 LINUX/depdom/XMLDeclImpl.o
 .bss           0x000000000026baf0        0x0 /usr/lib/gcc/x86_64-redhat-linux/4.4.7/crtendS.o
 .bss           0x000000000026baf0        0x0 /usr/lib/gcc/x86_64-redhat-linux/4.4.7/../../../../lib64/crtn.o
 *(COMMON)
                0x000000000026baf0                . = ALIGN ((. != 0x0)?0x8:0x1)

.lbss
 *(.dynlbss)
 *(.lbss .lbss.* .gnu.linkonce.lb.*)
 *(LARGE_COMMON)

.sharable_bss   0x0000000000400000        0x0
                0x0000000000400000                PROVIDE (__sharable_bss_start, .)
 *(.dynsharablebss)
 *(.sharable_bss .sharable_bss.* .gnu.linkonce.shrb.*)
 *(SHARABLE_COMMON)
                0x0000000000400000                . = ALIGN ((. != 0x0)?0x200000:0x1)
                0x0000000000400000                PROVIDE (__sharable_bss_end, .)
                0x0000000000400000                . = ALIGN (0x8)

.lrodata
 *(.lrodata .lrodata.* .gnu.linkonce.lr.*)

.ldata          0x000000000066baf0        0x0
 *(.ldata .ldata.* .gnu.linkonce.l.*)
                0x000000000066baf0                . = ALIGN ((. != 0x0)?0x8:0x1)
                0x000000000066baf0                . = ALIGN (0x8)
                0x000000000066baf0                _end = .
                0x000000000066baf0                PROVIDE (end, .)
                0x000000000066baf0                . = DATA_SEGMENT_END (.)

.stab
 *(.stab)

.stabstr
 *(.stabstr)

.stab.excl
 *(.stab.excl)

.stab.exclstr
 *(.stab.exclstr)

.stab.index
 *(.stab.index)

.stab.indexstr
 *(.stab.indexstr)

.comment        0x0000000000000000       0x2c
 *(.comment)
 .comment       0x0000000000000000       0x2c /usr/lib/gcc/x86_64-redhat-linux/4.4.7/../../../../lib64/crti.o
                                         0x2d (size before relaxing)
 .comment       0x0000000000000000       0x2d /usr/lib/gcc/x86_64-redhat-linux/4.4.7/crtbeginS.o
 .comment       0x0000000000000000       0x2d LINUX/depdom/AttrImpl.o
 .comment       0x0000000000000000       0x2d LINUX/depdom/AttrMapImpl.o
 .comment       0x0000000000000000       0x2d LINUX/depdom/AttrNSImpl.o
 .comment       0x0000000000000000       0x2d LINUX/depdom/CDATASectionImpl.o
 .comment       0x0000000000000000       0x2d LINUX/depdom/CharacterDataImpl.o
 .comment       0x0000000000000000       0x2d LINUX/depdom/ChildNode.o
 .comment       0x0000000000000000       0x2d LINUX/depdom/CommentImpl.o
 .comment       0x0000000000000000       0x2d LINUX/depdom/DeepNodeListImpl.o
 .comment       0x0000000000000000       0x2d LINUX/depdom/DocumentFragmentImpl.o
 .comment       0x0000000000000000       0x2d LINUX/depdom/DocumentImpl.o
 .comment       0x0000000000000000       0x2d LINUX/depdom/DocumentTypeImpl.o
 .comment       0x0000000000000000       0x2d LINUX/depdom/DOM_Attr.o
 .comment       0x0000000000000000       0x2d LINUX/depdom/DOM_CDATASection.o
 .comment       0x0000000000000000       0x2d LINUX/depdom/DOM_CharacterData.o
 .comment       0x0000000000000000       0x2d LINUX/depdom/DOM_Comment.o
 .comment       0x0000000000000000       0x2d LINUX/depdom/DOM_DocumentFragment.o
 .comment       0x0000000000000000       0x2d LINUX/depdom/DOM_Document.o
 .comment       0x0000000000000000       0x2d LINUX/depdom/DOM_DocumentType.o
 .comment       0x0000000000000000       0x2d LINUX/depdom/DOM_DOMException.o
 .comment       0x0000000000000000       0x2d LINUX/depdom/DOM_DOMImplementation.o
 .comment       0x0000000000000000       0x2d LINUX/depdom/DOM_Element.o
 .comment       0x0000000000000000       0x2d LINUX/depdom/DOM_Entity.o
 .comment       0x0000000000000000       0x2d LINUX/depdom/DOM_EntityReference.o
 .comment       0x0000000000000000       0x2d LINUX/depdom/DomMemDebug.o
 .comment       0x0000000000000000       0x2d LINUX/depdom/DOM_NamedNodeMap.o
 .comment       0x0000000000000000       0x2d LINUX/depdom/DOM_NodeFilter.o
 .comment       0x0000000000000000       0x2d LINUX/depdom/DOM_NodeIterator.o
 .comment       0x0000000000000000       0x2d LINUX/depdom/DOM_NodeList.o
 .comment       0x0000000000000000       0x2d LINUX/depdom/DOM_Node.o
 .comment       0x0000000000000000       0x2d LINUX/depdom/DOM_Notation.o
 .comment       0x0000000000000000       0x2d LINUX/depdom/DOMParser.o
 .comment       0x0000000000000000       0x2d LINUX/depdom/DOM_ProcessingInstruction.o
 .comment       0x0000000000000000       0x2d LINUX/depdom/DOM_RangeException.o
 .comment       0x0000000000000000       0x2d LINUX/depdom/DOM_Range.o
 .comment       0x0000000000000000       0x2d LINUX/depdom/DOMString.o
 .comment       0x0000000000000000       0x2d LINUX/depdom/DOM_Text.o
 .comment       0x0000000000000000       0x2d LINUX/depdom/DOM_TreeWalker.o
 .comment       0x0000000000000000       0x2d LINUX/depdom/DOM_XMLDecl.o
 .comment       0x0000000000000000       0x2d LINUX/depdom/DStringPool.o
 .comment       0x0000000000000000       0x2d LINUX/depdom/ElementDefinitionImpl.o
 .comment       0x0000000000000000       0x2d LINUX/depdom/ElementImpl.o
 .comment       0x0000000000000000       0x2d LINUX/depdom/ElementNSImpl.o
 .comment       0x0000000000000000       0x2d LINUX/depdom/EntityImpl.o
 .comment       0x0000000000000000       0x2d LINUX/depdom/EntityReferenceImpl.o
 .comment       0x0000000000000000       0x2d LINUX/depdom/NamedNodeMapImpl.o
 .comment       0x0000000000000000       0x2d LINUX/depdom/NodeIDMap.o
 .comment       0x0000000000000000       0x2d LINUX/depdom/NodeImpl.o
 .comment       0x0000000000000000       0x2d LINUX/depdom/NodeIteratorImpl.o
 .comment       0x0000000000000000       0x2d LINUX/depdom/NodeListImpl.o
 .comment       0x0000000000000000       0x2d LINUX/depdom/NodeVector.o
 .comment       0x0000000000000000       0x2d LINUX/depdom/NotationImpl.o
 .comment       0x0000000000000000       0x2d LINUX/depdom/ParentNode.o
 .comment       0x0000000000000000       0x2d LINUX/depdom/ProcessingInstructionImpl.o
 .comment       0x0000000000000000       0x2d LINUX/depdom/RangeImpl.o
 .comment       0x0000000000000000       0x2d LINUX/depdom/RefCountedImpl.o
 .comment       0x0000000000000000       0x2d LINUX/depdom/TextImpl.o
 .comment       0x0000000000000000       0x2d LINUX/depdom/TreeWalkerImpl.o
 .comment       0x0000000000000000       0x2d LINUX/depdom/XMLDeclImpl.o
 .comment       0x0000000000000000       0x2d /usr/lib/gcc/x86_64-redhat-linux/4.4.7/crtendS.o
 .comment       0x0000000000000000       0x2d /usr/lib/gcc/x86_64-redhat-linux/4.4.7/../../../../lib64/crtn.o

.debug
 *(.debug)

.line
 *(.line)

.debug_srcinfo
 *(.debug_srcinfo)

.debug_sfnames
 *(.debug_sfnames)

.debug_aranges
 *(.debug_aranges)

.debug_pubnames
 *(.debug_pubnames)

.debug_info
 *(.debug_info .gnu.linkonce.wi.*)

.debug_abbrev
 *(.debug_abbrev)

.debug_line
 *(.debug_line)

.debug_frame
 *(.debug_frame)

.debug_str
 *(.debug_str)

.debug_loc
 *(.debug_loc)

.debug_macinfo
 *(.debug_macinfo)

.debug_weaknames
 *(.debug_weaknames)

.debug_funcnames
 *(.debug_funcnames)

.debug_typenames
 *(.debug_typenames)

.debug_varnames
 *(.debug_varnames)

.debug_pubtypes
 *(.debug_pubtypes)

.debug_ranges
 *(.debug_ranges)

.gnu.attributes
 *(.gnu.attributes)

/DISCARD/
 *(.note.GNU-stack)
 *(.gnu_debuglink)
 *(.gnu.lto_*)
OUTPUT(/home/dev/isp2.2/SIPTelecom3.3/thirdParty/xerces-c-src_2_8_0/lib/libxerces-depdom.so.28.0 elf64-x86-64)
